LIBRARY PIKLIB8.dll
EXPORTS
??0CAnimationManager@@QAE@ABV0@@Z
??0CAnimationManager@@QAE@XZ
??0CAnimo6@@QAE@AAV0@@Z
??0CAnimo6@@QAE@AAVCAnimo@@@Z
??0CAnimo6@@QAE@PAVCWindow@@@Z
??0CAnimo6@@QAE@PAVCWindow@@PAVCMElement@@@Z
??0CAnimo6@@QAE@PAVCWindow@@VCXString@@@Z
??0CAnimo@@QAE@AAV0@@Z
??0CAnimo@@QAE@PAVCWindow@@@Z
??0CAnimo@@QAE@PAVCWindow@@VCXString@@@Z
??0CApplication@@QAE@AAV0@@Z
??0CApplication@@QAE@PAVCWindow@@VCXString@@1PAVCCommandLine6@@@Z
??0CBackgroundManager@CRefreshScreen@@QAE@ABV01@@Z
??0CBackgroundManager@CRefreshScreen@@QAE@PAVCWindow@@PAV1@@Z
??0CBigFile@@QAE@AAV0@@Z
??0CBigFile@@QAE@VCXString@@_N0@Z
??0CBigFile@@QAE@_NVCXString@@@Z
??0CButton@@QAE@AAV0@@Z
??0CButton@@QAE@PAVCWindow@@HPAVCHotSpot@@H@Z
??0CButton@@QAE@PAVCWindow@@VCXRect@@HPAVCHotSpot@@H@Z
??0CCanvas@@QAE@AAV0@@Z
??0CCanvas@@QAE@PAVCWindow@@VCXSize@@H_N2@Z
??0CCanvasObserver@@QAE@ABV0@@Z
??0CCanvasObserver@@QAE@XZ
??0CCollisionInspector@@QAE@ABV0@@Z
??0CCollisionInspector@@QAE@XZ
??0CCollisionObserver@@QAE@ABV0@@Z
??0CCollisionObserver@@QAE@XZ
??0CColor@@QAE@AAV0@@Z
??0CColor@@QAE@EEE@Z
??0CColor@@QAE@EEEE@Z
??0CColor@@QAE@FW4_colormodel@@@Z
??0CColor@@QAE@H@Z
??0CColor@@QAE@T_pixel@@@Z
??0CColor@@QAE@XZ
??0CCommandLine6@@QAE@AAV0@@Z
??0CCommandLine6@@QAE@PAD@Z
??0CCompression@@QAE@ABV0@@Z
??0CCompression@@QAE@PADH@Z
??0CConfig@@QAE@AAV0@@Z
??0CConfig@@QAE@PAVCWindow@@@Z
??0CConfig@@QAE@PAVCWindow@@VCXString@@@Z
??0CControl@@QAE@ABV0@@Z
??0CControl@@QAE@PAVCWindow@@@Z
??0CControlNotifier@@QAE@ABV0@@Z
??0CControlNotifier@@QAE@XZ
??0CDXMouse@@QAE@AAV0@@Z
??0CDXMouse@@QAE@PAVCWindow@@@Z
??0CDataBuffer2Dim@@QAE@AAV0@@Z
??0CDataBuffer2Dim@@QAE@PADVCXSize@@H@Z
??0CDataBuffer2Dim@@QAE@VCXSize@@H@Z
??0CDataBuffer@@QAE@ABV0@@Z
??0CDataBuffer@@QAE@HH@Z
??0CDataBuffer@@QAE@PADHH@Z
??0CDirectDrawSurface@@QAE@AAV0@@Z
??0CDirectDrawSurface@@QAE@PAVCWindow@@@Z
??0CDirectDrawSurface@@QAE@PAVCWindow@@PAUIDirectDrawSurface7@@VCXSize@@H@Z
??0CDirectDrawSurface@@QAE@PAVCWindow@@VCXSize@@H_N@Z
??0CEditBox6@@QAE@AAV0@@Z
??0CEditBox6@@QAE@PAVCWindow@@PAVCUnit6@@PAVCSimpleFont6@@VCXRect@@HVCXString@@@Z
??0CEditBoxNotifier@@QAE@ABV0@@Z
??0CEditBoxNotifier@@QAE@XZ
??0CError@@QAE@XZ
??0CFifoQuene@@QAE@ABV0@@Z
??0CFifoQuene@@QAE@XZ
??0CFile@@QAE@AAV0@@Z
??0CFile@@QAE@PAVCWindow@@VCXString@@H@Z
??0CFile@@QAE@XZ
??0CFileNameResolver@@QAE@AAV0@@Z
??0CFileNameResolver@@QAE@VCXString@@@Z
??0CFileResolver@@QAE@AAV0@@Z
??0CFileResolver@@QAE@XZ
??0CFolder@@QAE@AAV0@@Z
??0CFolder@@QAE@PAVCWindow@@@Z
??0CFolder@@QAE@PAVCWindow@@VCXString@@@Z
??0CFont5@@QAE@AAV0@@Z
??0CFont5@@QAE@PAVCWindow@@@Z
??0CFont5@@QAE@PAVCWindow@@PAVCMElement@@@Z
??0CFont5@@QAE@PAVCWindow@@VCXString@@@Z
??0CFontCollection@@QAE@AAV0@@Z
??0CFontCollection@@QAE@PAVCWindow@@@Z
??0CFrame@@QAE@AAV0@@Z
??0CFrame@@QAE@PAVCWindow@@@Z
??0CFrame@@QAE@PAVCWindow@@PAVCGraphicsObject@@@Z
??0CGraphicsObject@@QAE@AAV0@@Z
??0CGraphicsObject@@QAE@PAVCWindow@@@Z
??0CGraphicsObject@@QAE@PAVCWindow@@AAV0@@Z
??0CGraphicsObject@@QAE@PAVCWindow@@VCXSize@@H@Z
??0CGraphicsObject@@QAE@PAVCWindow@@VCXSize@@HPAD@Z
??0CHashtable@@QAE@ABV0@@Z
??0CHashtable@@QAE@HN_N@Z
??0CHotSpot@@QAE@ABV0@@Z
??0CHotSpot@@QAE@PAVCWindow@@@Z
??0CHotSpot@@QAE@PAVCWindow@@PAV0@W4_event@@H@Z
??0CHotSpot@@QAE@PAVCWindow@@W4_event@@H@Z
??0CImage@@QAE@AAV0@@Z
??0CImage@@QAE@PAVCWindow@@@Z
??0CImage@@QAE@PAVCWindow@@PAVCGraphicsObject@@@Z
??0CImage@@QAE@PAVCWindow@@PAVCMElement@@@Z
??0CImage@@QAE@PAVCWindow@@VCXString@@@Z
??0CImageFile@@QAE@ABV0@@Z
??0CImageFile@@QAE@PAVCWindow@@@Z
??0CInteger@@QAE@ABV0@@Z
??0CInteger@@QAE@H@Z
??0CInteger@@QAE@VCXString@@@Z
??0CInteger@@QAE@XZ
??0CInvalidateObserver@@QAE@ABV0@@Z
??0CInvalidateObserver@@QAE@XZ
??0CKeyListener@@QAE@ABV0@@Z
??0CKeyListener@@QAE@XZ
??0CKeyboard@@QAE@ABV0@@Z
??0CKeyboard@@QAE@PAVCWindow@@@Z
??0CLZWCompression2@@QAE@ABV0@@Z
??0CLZWCompression2@@QAE@PADH@Z
??0CLZWCompression@@QAE@ABV0@@Z
??0CLZWCompression@@QAE@PADH@Z
??0CLanguageOSVer@@QAE@AAV0@@Z
??0CLanguageOSVer@@QAE@XZ
??0CLifoQuene@@QAE@ABV0@@Z
??0CLifoQuene@@QAE@XZ
??0CMC_Animo@@QAE@AAV0@@Z
??0CMC_Animo@@QAE@PAVCMC_ObjectsContainer@@@Z
??0CMC_Animo@@QAE@PAVCMC_ObjectsContainer@@PAVCAnimo6@@@Z
??0CMC_Animo@@QAE@PAVCMC_ObjectsContainer@@PAVCMElement@@@Z
??0CMC_Animo_Runner@@QAE@ABV0@@Z
??0CMC_Animo_Runner@@QAE@XZ
??0CMC_Application@@QAE@AAV0@@Z
??0CMC_Application@@QAE@PAVCWindow@@@Z
??0CMC_Application@@QAE@PAVCWindow@@PAVCMC_StructureParser@@PAVCMElement@@PAVCCommandLine6@@@Z
??0CMC_Application_Runner@@QAE@ABV0@@Z
??0CMC_Application_Runner@@QAE@XZ
??0CMC_Array@@QAE@AAV0@@Z
??0CMC_Array@@QAE@PAVCMC_ObjectsContainer@@PAVCMElement@@@Z
??0CMC_Array@@QAE@PAVCMC_ObjectsContainer@@VCXString@@@Z
??0CMC_Array_Runner@@QAE@ABV0@@Z
??0CMC_Array_Runner@@QAE@XZ
??0CMC_BasicCondition@@QAE@AAV0@@Z
??0CMC_BasicCondition@@QAE@PAVCMC_ObjectsContainer@@PAVCMElement@@H@Z
??0CMC_BasicCondition@@QAE@VCXString@@H@Z
??0CMC_BasicCondition_Runner@@QAE@ABV0@@Z
??0CMC_BasicCondition_Runner@@QAE@XZ
??0CMC_Behaviour@@QAE@AAV0@@Z
??0CMC_Behaviour@@QAE@PAVCMC_ObjectsContainer@@@Z
??0CMC_Behaviour@@QAE@PAVCMC_ObjectsContainer@@PAVCMElement@@@Z
??0CMC_Behaviour@@QAE@PAVCMC_ObjectsContainer@@VCXString@@1@Z
??0CMC_Behaviour_Entry@@QAE@AAV0@@Z
??0CMC_Behaviour_Entry@@QAE@PAVCMC_Behaviour@@VCXString@@@Z
??0CMC_Behaviour_Runner@@QAE@ABV0@@Z
??0CMC_Behaviour_Runner@@QAE@XZ
??0CMC_Bool@@QAE@AAV0@@Z
??0CMC_Bool@@QAE@PAVCMC_ObjectsContainer@@PAVCMElement@@@Z
??0CMC_Bool@@QAE@VCXString@@@Z
??0CMC_Bool@@QAE@VCXString@@H@Z
??0CMC_Bool@@QAE@_N@Z
??0CMC_Button@@QAE@AAV0@@Z
??0CMC_Button@@QAE@PAVCMC_ObjectsContainer@@@Z
??0CMC_Button@@QAE@PAVCMC_ObjectsContainer@@PAVCButton@@VCXString@@@Z
??0CMC_Button@@QAE@PAVCMC_ObjectsContainer@@PAVCMElement@@@Z
??0CMC_Button_Runner@@QAE@ABV0@@Z
??0CMC_Button_Runner@@QAE@XZ
??0CMC_CNVLoader@@QAE@AAV0@@Z
??0CMC_CNVLoader@@QAE@PAVCWindow@@PAVCMC_ObjectsContainer@@@Z
??0CMC_CNVLoader_Runner@@QAE@ABV0@@Z
??0CMC_CNVLoader_Runner@@QAE@XZ
??0CMC_Canvas@@QAE@AAV0@@Z
??0CMC_Canvas@@QAE@PAVCMC_ObjectsContainer@@PAVCCanvas@@@Z
??0CMC_Canvas@@QAE@PAVCMC_ObjectsContainer@@PAVCMElement@@@Z
??0CMC_CanvasObserver@@QAE@AAV0@@Z
??0CMC_CanvasObserver@@QAE@PAVCMC_ObjectsContainer@@@Z
??0CMC_CanvasObserver@@QAE@PAVCMC_ObjectsContainer@@PAVCMElement@@@Z
??0CMC_CanvasObserver_Runner@@QAE@ABV0@@Z
??0CMC_CanvasObserver_Runner@@QAE@XZ
??0CMC_Canvas_Runner@@QAE@ABV0@@Z
??0CMC_Canvas_Runner@@QAE@XZ
??0CMC_Class@@QAE@AAV0@@Z
??0CMC_Class@@QAE@PAVCMC_Scene@@PAV0@VCXString@@@Z
??0CMC_Class@@QAE@PAVCMC_Scene@@PAVCMElement@@@Z
??0CMC_Class_Runner@@QAE@ABV0@@Z
??0CMC_Class_Runner@@QAE@XZ
??0CMC_ComplexCondition@@QAE@AAV0@@Z
??0CMC_ComplexCondition@@QAE@PAVCMC_ObjectsContainer@@@Z
??0CMC_ComplexCondition@@QAE@PAVCMC_ObjectsContainer@@PAVCMElement@@@Z
??0CMC_Condition@@QAE@AAV0@@Z
??0CMC_Condition@@QAE@PAVCMC_ObjectsContainer@@@Z
??0CMC_Condition@@QAE@PAVCMC_ObjectsContainer@@PAVCMElement@@@Z
??0CMC_DLLExModuleInterface@@QAE@AAV0@@Z
??0CMC_DLLExModuleInterface@@QAE@VCXString@@PAVCMC_ObjectsContainer@@@Z
??0CMC_Database@@QAE@AAV0@@Z
??0CMC_Database@@QAE@PAVCMC_ObjectsContainer@@PAVCMElement@@@Z
??0CMC_Database_Runner@@QAE@ABV0@@Z
??0CMC_Database_Runner@@QAE@XZ
??0CMC_Dialog@@QAE@AAV0@@Z
??0CMC_Dialog@@QAE@PAVCMC_ObjectsContainer@@PAVCMElement@@@Z
??0CMC_Dialog@@QAE@XZ
??0CMC_Dialog_Runner@@QAE@ABV0@@Z
??0CMC_Dialog_Runner@@QAE@XZ
??0CMC_Double@@QAE@AAV0@@Z
??0CMC_Double@@QAE@N@Z
??0CMC_Double@@QAE@PAVCMC_ObjectsContainer@@PAVCMElement@@@Z
??0CMC_Double@@QAE@VCXString@@@Z
??0CMC_Double@@QAE@VCXString@@H@Z
??0CMC_EditBox@@QAE@AAV0@@Z
??0CMC_EditBox@@QAE@PAVCMC_ObjectsContainer@@@Z
??0CMC_EditBox@@QAE@PAVCMC_ObjectsContainer@@PAVCMElement@@@Z
??0CMC_EditBox_Runner@@QAE@ABV0@@Z
??0CMC_EditBox_Runner@@QAE@XZ
??0CMC_Episode@@QAE@AAV0@@Z
??0CMC_Episode@@QAE@PAVCWindow@@@Z
??0CMC_Episode@@QAE@PAVCWindow@@PAVCMC_StructureParser@@PAVCMElement@@@Z
??0CMC_Episode_Runner@@QAE@ABV0@@Z
??0CMC_Episode_Runner@@QAE@XZ
??0CMC_Expression@@QAE@AAV0@@Z
??0CMC_Expression@@QAE@PAVCMC_ObjectsContainer@@PAVCMElement@@@Z
??0CMC_Expression@@QAE@PAVCMC_ObjectsContainer@@VCXString@@@Z
??0CMC_ExternObject@@QAE@ABV0@@Z
??0CMC_ExternObject@@QAE@XZ
??0CMC_Font@@QAE@AAV0@@Z
??0CMC_Font@@QAE@PAVCMC_ObjectsContainer@@@Z
??0CMC_Font@@QAE@PAVCMC_ObjectsContainer@@PAVCMElement@@@Z
??0CMC_Font_Runner@@QAE@ABV0@@Z
??0CMC_Font_Runner@@QAE@XZ
??0CMC_Groupped@@QAE@AAV0@@Z
??0CMC_Groupped@@QAE@PAVCMC_ObjectsContainer@@PAVCMElement@@@Z
??0CMC_Groupped@@QAE@VCXString@@PAVCMC_ObjectsContainer@@@Z
??0CMC_Groupped_Runner@@QAE@ABV0@@Z
??0CMC_Groupped_Runner@@QAE@XZ
??0CMC_Image@@QAE@AAV0@@Z
??0CMC_Image@@QAE@PAVCMC_ObjectsContainer@@@Z
??0CMC_Image@@QAE@PAVCMC_ObjectsContainer@@PAVCImage@@@Z
??0CMC_Image@@QAE@PAVCMC_ObjectsContainer@@PAVCMElement@@@Z
??0CMC_Image_Runner@@QAE@ABV0@@Z
??0CMC_Image_Runner@@QAE@XZ
??0CMC_Integer@@QAE@AAV0@@Z
??0CMC_Integer@@QAE@H@Z
??0CMC_Integer@@QAE@PAVCMC_ObjectsContainer@@PAVCMElement@@@Z
??0CMC_Integer@@QAE@VCXString@@@Z
??0CMC_Integer@@QAE@VCXString@@H@Z
??0CMC_Joystick@@QAE@AAV0@@Z
??0CMC_Joystick@@QAE@PAVCMC_ObjectsContainer@@PAVCMElement@@@Z
??0CMC_Joystick@@QAE@PAVCWindow@@@Z
??0CMC_Joystick_Runner@@QAE@ABV0@@Z
??0CMC_Joystick_Runner@@QAE@XZ
??0CMC_Keyboard@@QAE@AAV0@@Z
??0CMC_Keyboard@@QAE@PAVCMC_ObjectsContainer@@@Z
??0CMC_Keyboard@@QAE@PAVCMC_ObjectsContainer@@PAVCMElement@@@Z
??0CMC_Keyboard_Runner@@QAE@ABV0@@Z
??0CMC_Keyboard_Runner@@QAE@XZ
??0CMC_Mouse@@QAE@AAV0@@Z
??0CMC_Mouse@@QAE@PAVCMC_ObjectsContainer@@@Z
??0CMC_Mouse@@QAE@PAVCMC_ObjectsContainer@@PAVCMElement@@@Z
??0CMC_Mouse_Runner@@QAE@ABV0@@Z
??0CMC_Mouse_Runner@@QAE@XZ
??0CMC_MultiArray@@QAE@AAV0@@Z
??0CMC_MultiArray@@QAE@PAVCMC_ObjectsContainer@@PAVCMElement@@@Z
??0CMC_MultiArray@@QAE@PAVCMC_ObjectsContainer@@VCXString@@@Z
??0CMC_MultiArray_Runner@@QAE@ABV0@@Z
??0CMC_MultiArray_Runner@@QAE@XZ
??0CMC_NetClient@@QAE@AAV0@@Z
??0CMC_NetClient@@QAE@PAVCMElement@@PAVCMC_Scene@@@Z
??0CMC_NetClient@@QAE@PAVCWindow@@PAVCMC_Application@@@Z
??0CMC_NetClient_Runner@@QAE@ABV0@@Z
??0CMC_NetClient_Runner@@QAE@XZ
??0CMC_NetServer@@QAE@AAV0@@Z
??0CMC_NetServer@@QAE@PAVCMElement@@PAVCMC_Scene@@@Z
??0CMC_NetServer@@QAE@PAVCWindow@@PAVCMC_Application@@@Z
??0CMC_NetServer_Runner@@QAE@ABV0@@Z
??0CMC_NetServer_Runner@@QAE@XZ
??0CMC_Object@@QAE@AAV0@@Z
??0CMC_Object@@QAE@PAVCMC_ObjectsContainer@@PAVCMElement@@H@Z
??0CMC_Object@@QAE@VCXString@@H@Z
??0CMC_ObjectsContainer@@QAE@AAV0@@Z
??0CMC_ObjectsContainer@@QAE@PAVCWindow@@PAV0@PAVCMElement@@H@Z
??0CMC_ObjectsContainer@@QAE@PAVCWindow@@PAV0@VCXString@@H@Z
??0CMC_Pattern@@QAE@AAV0@@Z
??0CMC_Pattern@@QAE@PAVCMC_ObjectsContainer@@@Z
??0CMC_Pattern@@QAE@PAVCMC_ObjectsContainer@@PAVCMElement@@@Z
??0CMC_Pattern_Runner@@QAE@ABV0@@Z
??0CMC_Pattern_Runner@@QAE@XZ
??0CMC_Rand_Runner@@QAE@ABV0@@Z
??0CMC_Rand_Runner@@QAE@XZ
??0CMC_Runner@@QAE@ABV0@@Z
??0CMC_Runner@@QAE@XZ
??0CMC_Scene@@QAE@AAV0@@Z
??0CMC_Scene@@QAE@PAVCWindow@@H@Z
??0CMC_Scene@@QAE@PAVCWindow@@PAV0@PAVCMElement@@H@Z
??0CMC_Scene_Runner@@QAE@ABV0@@Z
??0CMC_Scene_Runner@@QAE@XZ
??0CMC_Scroll@@QAE@AAV0@@Z
??0CMC_Scroll@@QAE@PAVCMC_ObjectsContainer@@@Z
??0CMC_Scroll@@QAE@PAVCMC_ObjectsContainer@@PAVCMElement@@@Z
??0CMC_Scroll_Runner@@QAE@ABV0@@Z
??0CMC_Scroll_Runner@@QAE@XZ
??0CMC_Sequence@@QAE@AAV0@@Z
??0CMC_Sequence@@QAE@PAVCMC_ObjectsContainer@@@Z
??0CMC_Sequence@@QAE@PAVCMC_ObjectsContainer@@PAVCMElement@@@Z
??0CMC_Sequence_Runner@@QAE@ABV0@@Z
??0CMC_Sequence_Runner@@QAE@XZ
??0CMC_Sound@@QAE@AAV0@@Z
??0CMC_Sound@@QAE@PAVCMC_ObjectsContainer@@@Z
??0CMC_Sound@@QAE@PAVCMC_ObjectsContainer@@PAVCMElement@@@Z
??0CMC_Sound_Runner@@QAE@ABV0@@Z
??0CMC_Sound_Runner@@QAE@XZ
??0CMC_String@@QAE@AAV0@@Z
??0CMC_String@@QAE@PAVCMC_ObjectsContainer@@PAVCMElement@@@Z
??0CMC_String@@QAE@VCXString@@0@Z
??0CMC_String@@QAE@VCXString@@@Z
??0CMC_String@@QAE@VCXString@@H@Z
??0CMC_Structure@@QAE@AAV0@@Z
??0CMC_Structure@@QAE@PAVCMC_ObjectsContainer@@PAVCMElement@@@Z
??0CMC_Structure@@QAE@VCXString@@@Z
??0CMC_StructureParser@@QAE@ABV0@@Z
??0CMC_StructureParser@@QAE@PAVCWindow@@VCXString@@@Z
??0CMC_Structure_Runner@@QAE@ABV0@@Z
??0CMC_Structure_Runner@@QAE@XZ
??0CMC_System@@QAE@AAV0@@Z
??0CMC_System@@QAE@PAVCMC_ObjectsContainer@@@Z
??0CMC_System_Runner@@QAE@ABV0@@Z
??0CMC_System_Runner@@QAE@XZ
??0CMC_Text@@QAE@AAV0@@Z
??0CMC_Text@@QAE@PAVCMC_ObjectsContainer@@@Z
??0CMC_Text@@QAE@PAVCMC_ObjectsContainer@@PAVCMElement@@@Z
??0CMC_Text_Runner@@QAE@ABV0@@Z
??0CMC_Text_Runner@@QAE@XZ
??0CMC_Timer@@QAE@AAV0@@Z
??0CMC_Timer@@QAE@PAVCMC_ObjectsContainer@@@Z
??0CMC_Timer@@QAE@PAVCMC_ObjectsContainer@@PAVCMElement@@@Z
??0CMC_Timer_Runner@@QAE@ABV0@@Z
??0CMC_Timer_Runner@@QAE@XZ
??0CMC_Variable@@QAE@AAV0@@Z
??0CMC_Variable@@QAE@PAVCMC_ObjectsContainer@@PAVCMElement@@H@Z
??0CMC_Variable@@QAE@VCXString@@H@Z
??0CMC_Variable@@QAE@VCXString@@HH@Z
??0CMC_Variable_Runner@@QAE@ABV0@@Z
??0CMC_Variable_Runner@@QAE@XZ
??0CMC_VirtualGraphicsObject@@QAE@AAV0@@Z
??0CMC_VirtualGraphicsObject@@QAE@PAVCMC_ObjectsContainer@@PAVCMElement@@@Z
??0CMC_VirtualGraphicsObject@@QAE@PAVCMC_ObjectsContainer@@PAVCVirtualGraphicsObject@@@Z
??0CMC_VirtualGraphicsObject_Runner@@QAE@ABV0@@Z
??0CMC_VirtualGraphicsObject_Runner@@QAE@XZ
??0CMElement@@QAE@AAV0@@Z
??0CMElement@@QAE@VCXString@@@Z
??0CMElementCreator@@QAE@ABV0@@Z
??0CMElementCreator@@QAE@XZ
??0CMElements@@QAE@ABV0@@Z
??0CMElements@@QAE@_N@Z
??0CMElementsLoader@@QAE@ABV0@@Z
??0CMElementsLoader@@QAE@XZ
??0CMProperties@@QAE@ABV0@@Z
??0CMProperties@@QAE@XZ
??0CMProperty@@QAE@AAV0@@Z
??0CMProperty@@QAE@VCXString@@0@Z
??0CMProperty@@QAE@VCXString@@@Z
??0CMProperty@@QAE@XZ
??0CMemStorage@@QAE@H@Z
??0CMemStream@@QAE@PAVCFile@@@Z
??0CMemoryDbg@@QAE@XZ
??0CMouseListener@@QAE@ABV0@@Z
??0CMouseListener@@QAE@XZ
??0CMultilineText6@@QAE@AAV0@@Z
??0CMultilineText6@@QAE@PAVCWindow@@PAVCUnit6@@@Z
??0CMultimediaSequenceCreator@@QAE@ABV0@@Z
??0CMultimediaSequenceCreator@@QAE@PAVCWindow@@VCXString@@PAVCResourcesManager@@PAVCPlayableObserver@@_N@Z
??0CNetBehaviourMessage@@QAE@ABV0@@Z
??0CNetBehaviourMessage@@QAE@HPAD@Z
??0CNetBehaviourMessage@@QAE@PAVCMC_Behaviour@@@Z
??0CNetBehaviourMessage@@QAE@XZ
??0CNetClientListener@@QAE@ABV0@@Z
??0CNetClientListener@@QAE@XZ
??0CNetCmdMessage@@QAE@ABV0@@Z
??0CNetCmdMessage@@QAE@HPAD@Z
??0CNetCmdMessage@@QAE@VCXString@@@Z
??0CNetCmdMessage@@QAE@XZ
??0CNetMessage@@QAE@ABV0@@Z
??0CNetMessage@@QAE@H@Z
??0CNetMessage@@QAE@HHPAD@Z
??0CNetPlayerInfo@@QAE@AAV0@@Z
??0CNetPlayerInfo@@QAE@KPAU_DPN_PLAYER_INFO@@@Z
??0CNetServerListener@@QAE@ABV0@@Z
??0CNetServerListener@@QAE@XZ
??0CNetVariableMessage@@QAE@ABV0@@Z
??0CNetVariableMessage@@QAE@HPAD@Z
??0CNetVariableMessage@@QAE@PAVCMC_Variable@@@Z
??0CNetVariableMessage@@QAE@XZ
??0CNetworkClient@@QAE@ABV0@@Z
??0CNetworkClient@@QAE@PAVCWindow@@@Z
??0CNetworkServer@@QAE@ABV0@@Z
??0CNetworkServer@@QAE@PAVCWindow@@@Z
??0CPSD@@QAE@AAV0@@Z
??0CPSD@@QAE@PAVCWindow@@@Z
??0CPSD@@QAE@PAVCWindow@@PAVCGraphicsObject@@@Z
??0CPSD@@QAE@PAVCWindow@@VCXString@@@Z
??0CPath@@QAE@AAV0@@Z
??0CPath@@QAE@PAVCWindow@@@Z
??0CPath@@QAE@PAVCWindow@@VCXString@@@Z
??0CPattern@@QAE@AAV0@@Z
??0CPattern@@QAE@PAVCWindow@@VCXSize@@1H@Z
??0CPlayable@@QAE@AAV0@@Z
??0CPlayable@@QAE@PAVCWindow@@@Z
??0CPlayableObserver@@QAE@ABV0@@Z
??0CPlayableObserver@@QAE@XZ
??0CPrinter@@QAE@PAVCWindow@@VCXRect@@@Z
??0CQuene@@QAE@ABV0@@Z
??0CQuene@@QAE@XZ
??0CRLECompression2@@QAE@AAV0@@Z
??0CRLECompression2@@QAE@VCXSize@@PAFPADH@Z
??0CRLECompression@@QAE@ABV0@@Z
??0CRLECompression@@QAE@PADH@Z
??0CRandomPlayable@@QAE@ABV0@@Z
??0CRandomPlayable@@QAE@PAVCWindow@@PAVCUnit6@@@Z
??0CRandomPlayableEntry@@QAE@AAV0@@Z
??0CRandomPlayableEntry@@QAE@PAVCRandomPlayable@@PAVCPlayable@@NHVCXString@@@Z
??0CRandomPlayableNotifier@@QAE@ABV0@@Z
??0CRandomPlayableNotifier@@QAE@XZ
??0CRefreshScreen@@QAE@AAV0@@Z
??0CRefreshScreen@@QAE@PAVCWindow@@_N@Z
??0CResourcesManager@@QAE@ABV0@@Z
??0CResourcesManager@@QAE@PAVCWindow@@@Z
??0CSequencedPlayable@@QAE@AAV0@@Z
??0CSequencedPlayable@@QAE@PAVCWindow@@@Z
??0CSequencedPlayable@@QAE@PAVCWindow@@PAVCMElement@@@Z
??0CSimpleFont6@@QAE@AAV0@@Z
??0CSimpleFont6@@QAE@PAVCWindow@@@Z
??0CSimpleFont6@@QAE@PAVCWindow@@PAVCMElement@@@Z
??0CSimpleFont6@@QAE@PAVCWindow@@VCXString@@@Z
??0CSndStream@@QAE@ABV0@@Z
??0CSndStream@@QAE@PAVCWindow@@@Z
??0CSndStream@@QAE@PAVCWindow@@VCXString@@@Z
??0CSortedVector@@QAE@ABV0@@Z
??0CSortedVector@@QAE@H@Z
??0CSound4@@QAE@AAV0@@Z
??0CSound4@@QAE@PAVCWindow@@@Z
??0CSound4@@QAE@PAVCWindow@@PAVCMElement@@@Z
??0CSound4@@QAE@PAVCWindow@@VCXString@@_N2@Z
??0CSoundCodec@@QAE@ABV0@@Z
??0CSoundCodec@@QAE@XZ
??0CSoundCodec_ADPCM@@QAE@ABV0@@Z
??0CSoundCodec_ADPCM@@QAE@XZ
??0CSoundCodec_PCM@@QAE@ABV0@@Z
??0CSoundCodec_PCM@@QAE@XZ
??0CSoundManager@@QAE@ABV0@@Z
??0CSoundManager@@QAE@XZ
??0CSpeakingAnimation@@QAE@AAV0@@Z
??0CSpeakingAnimation@@QAE@PAVCWindow@@PAVCResourcesManager@@@Z
??0CStreamedWAV@@QAE@AAV0@@Z
??0CStreamedWAV@@QAE@PAVCWindow@@VCXString@@PAPAUIDirectSoundBuffer@@PAUtWAVEFORMATEX@@@Z
??0CStringArray@@QAE@ABV0@@Z
??0CStringArray@@QAE@_N@Z
??0CStringHashCode@@QAE@ABV0@@Z
??0CStringHashCode@@QAE@VCXString@@@Z
??0CStringTokenizer@@QAE@AAV0@@Z
??0CStringTokenizer@@QAE@VCXString@@0@Z
??0CSurface@@QAE@AAV0@@Z
??0CSurface@@QAE@PAVCWindow@@AAVCXSize@@AAHPAUHWND__@@_N@Z
??0CSurface@@QAE@PAVCWindow@@VCXSize@@@Z
??0CSwitchButton@@QAE@ABV0@@Z
??0CSwitchButton@@QAE@PAVCWindow@@HH@Z
??0CSwitchButton@@QAE@PAVCWindow@@VCXRect@@HH@Z
??0CTarga@@QAE@PAVCWindow@@@Z
??0CTarga@@QAE@PAVCWindow@@VCXString@@@Z
??0CText6@@QAE@AAV0@@Z
??0CText6@@QAE@PAVCWindow@@PAVCUnit6@@@Z
??0CTextCoder@@QAE@AAV0@@Z
??0CTextCoder@@QAE@PAVCWindow@@VCXString@@_N@Z
??0CTextFileReader@@QAE@ABV0@@Z
??0CTextFileReader@@QAE@PAVCWindow@@PAD@Z
??0CTextFormatCode@@QAE@AAV0@@Z
??0CTextFormatCode@@QAE@HHVCXString@@@Z
??0CTextFormatCode@@QAE@PAVCSimpleFont6@@VCXString@@@Z
??0CTextFormatCode@@QAE@VCXString@@@Z
??0CTimerNotificator@@QAE@ABV0@@Z
??0CTimerNotificator@@QAE@XZ
??0CTreeSequenceElements@@QAE@ABV0@@Z
??0CTreeSequenceElements@@QAE@PAVCWindow@@PAVCResourcesManager@@@Z
??0CUnit6@@QAE@AAV0@@Z
??0CUnit6@@QAE@PAVCWindow@@VCXString@@@Z
??0CValidationQuene@@QAE@ABV0@@Z
??0CValidationQuene@@QAE@XZ
??0CWindow@@QAE@AAV0@@Z
??0CWindow@@QAE@PAUHWND__@@PAVCCommandLine6@@PAVCLanguageOSVer@@VCXSize@@PAUHICON__@@@Z
??0CXArchive@@QAE@ABV0@@Z
??0CXArchive@@QAE@PAVCFile@@_N@Z
??0CXArray@@QAE@ABV0@@Z
??0CXArray@@QAE@HM@Z
??0CXBitmap@@QAE@AAV0@@Z
??0CXBitmap@@QAE@PAVCWindow@@@Z
??0CXBitmap@@QAE@PAVCWindow@@PAVCGraphicsObject@@@Z
??0CXBitmap@@QAE@PAVCWindow@@VCXString@@@Z
??0CXDialog@@QAE@AAV0@@Z
??0CXDialog@@QAE@PAVCMC_ObjectsContainer@@@Z
??0CXFifoQuene@@QAE@ABV0@@Z
??0CXFifoQuene@@QAE@XZ
??0CXLifoQuene@@QAE@ABV0@@Z
??0CXLifoQuene@@QAE@XZ
??0CXObject@@QAE@ABV0@@Z
??0CXObject@@QAE@XZ
??0CXPair@@QAE@AAV0@@Z
??0CXPair@@QAE@PAX0@Z
??0CXPair@@QAE@VCXString@@PAX@Z
??0CXPoint@@QAE@AAV0@@Z
??0CXPoint@@QAE@H@Z
??0CXPoint@@QAE@HH@Z
??0CXQuene@@QAE@ABV0@@Z
??0CXQuene@@QAE@XZ
??0CXRandom@@QAE@ABV0@@Z
??0CXRandom@@QAE@XZ
??0CXRect@@QAE@AAV0@@Z
??0CXRect@@QAE@H@Z
??0CXRect@@QAE@HHHH@Z
??0CXRect@@QAE@PAV0@@Z
??0CXRect@@QAE@VCXPoint@@0@Z
??0CXSize@@QAE@AAV0@@Z
??0CXSize@@QAE@H@Z
??0CXSize@@QAE@HH@Z
??0CXString@@QAE@AAV0@@Z
??0CXString@@QAE@H@Z
??0CXString@@QAE@PAD@Z
??0CXString@@QAE@XZ
??0CXTimer@@QAE@ABV0@@Z
??0CXTimer@@QAE@PAVCWindow@@@Z
??0CXVector@@QAE@ABV0@@Z
??0CXVector@@QAE@HM@Z
??0JPEG@@QAE@PAD@Z
??0JPEG@@QAE@PADJ@Z
??1CAnimationManager@@UAE@XZ
??1CAnimo6@@UAE@XZ
??1CAnimo@@UAE@XZ
??1CApplication@@UAE@XZ
??1CBackgroundManager@CRefreshScreen@@UAE@XZ
??1CBigFile@@UAE@XZ
??1CButton@@UAE@XZ
??1CCanvas@@UAE@XZ
??1CCollisionInspector@@UAE@XZ
??1CColor@@UAE@XZ
??1CCommandLine6@@QAE@XZ
??1CCompression@@UAE@XZ
??1CConfig@@UAE@XZ
??1CControl@@UAE@XZ
??1CDXMouse@@QAE@XZ
??1CDataBuffer2Dim@@UAE@XZ
??1CDataBuffer@@UAE@XZ
??1CDirectDrawSurface@@UAE@XZ
??1CEditBox6@@UAE@XZ
??1CError@@QAE@XZ
??1CFifoQuene@@UAE@XZ
??1CFile@@UAE@XZ
??1CFileNameResolver@@UAE@XZ
??1CFileResolver@@UAE@XZ
??1CFolder@@UAE@XZ
??1CFont5@@UAE@XZ
??1CFontCollection@@UAE@XZ
??1CFrame@@UAE@XZ
??1CGraphicsObject@@UAE@XZ
??1CHashtable@@UAE@XZ
??1CHotSpot@@UAE@XZ
??1CImage@@UAE@XZ
??1CImageFile@@UAE@XZ
??1CInteger@@UAE@XZ
??1CKeyboard@@UAE@XZ
??1CLZWCompression2@@UAE@XZ
??1CLZWCompression@@UAE@XZ
??1CLanguageOSVer@@QAE@XZ
??1CLifoQuene@@UAE@XZ
??1CMC_Animo@@UAE@XZ
??1CMC_Animo_Runner@@UAE@XZ
??1CMC_Application@@UAE@XZ
??1CMC_Application_Runner@@UAE@XZ
??1CMC_Array@@UAE@XZ
??1CMC_Array_Runner@@UAE@XZ
??1CMC_BasicCondition@@UAE@XZ
??1CMC_BasicCondition_Runner@@UAE@XZ
??1CMC_Behaviour@@UAE@XZ
??1CMC_Behaviour_Entry@@UAE@XZ
??1CMC_Behaviour_Runner@@UAE@XZ
??1CMC_Bool@@UAE@XZ
??1CMC_Button@@UAE@XZ
??1CMC_Button_Runner@@UAE@XZ
??1CMC_CNVLoader@@UAE@XZ
??1CMC_CNVLoader_Runner@@UAE@XZ
??1CMC_Canvas@@UAE@XZ
??1CMC_CanvasObserver@@UAE@XZ
??1CMC_CanvasObserver_Runner@@UAE@XZ
??1CMC_Canvas_Runner@@UAE@XZ
??1CMC_Class@@UAE@XZ
??1CMC_Class_Runner@@UAE@XZ
??1CMC_ComplexCondition@@UAE@XZ
??1CMC_Condition@@UAE@XZ
??1CMC_DLLExModuleInterface@@UAE@XZ
??1CMC_Database@@UAE@XZ
??1CMC_Database_Runner@@UAE@XZ
??1CMC_Dialog@@UAE@XZ
??1CMC_Dialog_Runner@@UAE@XZ
??1CMC_Double@@UAE@XZ
??1CMC_EditBox@@UAE@XZ
??1CMC_EditBox_Runner@@UAE@XZ
??1CMC_Episode@@UAE@XZ
??1CMC_Episode_Runner@@UAE@XZ
??1CMC_Expression@@UAE@XZ
??1CMC_Font@@UAE@XZ
??1CMC_Font_Runner@@UAE@XZ
??1CMC_Groupped@@UAE@XZ
??1CMC_Groupped_Runner@@UAE@XZ
??1CMC_Image@@UAE@XZ
??1CMC_Image_Runner@@UAE@XZ
??1CMC_Integer@@UAE@XZ
??1CMC_Joystick@@UAE@XZ
??1CMC_Joystick_Runner@@UAE@XZ
??1CMC_Keyboard@@UAE@XZ
??1CMC_Keyboard_Runner@@UAE@XZ
??1CMC_Mouse@@UAE@XZ
??1CMC_Mouse_Runner@@UAE@XZ
??1CMC_MultiArray@@UAE@XZ
??1CMC_MultiArray_Runner@@UAE@XZ
??1CMC_NetClient@@UAE@XZ
??1CMC_NetClient_Runner@@UAE@XZ
??1CMC_NetServer@@UAE@XZ
??1CMC_NetServer_Runner@@UAE@XZ
??1CMC_Object@@UAE@XZ
??1CMC_ObjectsContainer@@UAE@XZ
??1CMC_Pattern@@UAE@XZ
??1CMC_Pattern_Runner@@UAE@XZ
??1CMC_Rand_Runner@@UAE@XZ
??1CMC_Runner@@UAE@XZ
??1CMC_Scene@@UAE@XZ
??1CMC_Scene_Runner@@UAE@XZ
??1CMC_Scroll@@UAE@XZ
??1CMC_Scroll_Runner@@UAE@XZ
??1CMC_Sequence@@UAE@XZ
??1CMC_Sequence_Runner@@UAE@XZ
??1CMC_Sound@@UAE@XZ
??1CMC_Sound_Runner@@UAE@XZ
??1CMC_String@@UAE@XZ
??1CMC_Structure@@UAE@XZ
??1CMC_StructureParser@@UAE@XZ
??1CMC_Structure_Runner@@UAE@XZ
??1CMC_System@@UAE@XZ
??1CMC_System_Runner@@UAE@XZ
??1CMC_Text@@UAE@XZ
??1CMC_Text_Runner@@UAE@XZ
??1CMC_Timer@@UAE@XZ
??1CMC_Timer_Runner@@UAE@XZ
??1CMC_Variable@@UAE@XZ
??1CMC_Variable_Runner@@UAE@XZ
??1CMC_VirtualGraphicsObject@@UAE@XZ
??1CMC_VirtualGraphicsObject_Runner@@UAE@XZ
??1CMElement@@UAE@XZ
??1CMElementCreator@@UAE@XZ
??1CMElements@@UAE@XZ
??1CMElementsLoader@@UAE@XZ
??1CMProperties@@UAE@XZ
??1CMProperty@@UAE@XZ
??1CMemStorage@@QAE@XZ
??1CMemStream@@QAE@XZ
??1CMemoryDbg@@QAE@XZ
??1CMultilineText6@@UAE@XZ
??1CMultimediaSequenceCreator@@UAE@XZ
??1CNetBehaviourMessage@@UAE@XZ
??1CNetCmdMessage@@UAE@XZ
??1CNetMessage@@UAE@XZ
??1CNetPlayerInfo@@UAE@XZ
??1CNetVariableMessage@@UAE@XZ
??1CNetworkClient@@UAE@XZ
??1CNetworkServer@@UAE@XZ
??1CPSD@@UAE@XZ
??1CPath@@UAE@XZ
??1CPattern@@UAE@XZ
??1CPlayable@@UAE@XZ
??1CQuene@@UAE@XZ
??1CRLECompression2@@UAE@XZ
??1CRLECompression@@UAE@XZ
??1CRandomPlayable@@UAE@XZ
??1CRandomPlayableEntry@@UAE@XZ
??1CRefreshScreen@@UAE@XZ
??1CResourcesManager@@UAE@XZ
??1CSequencedPlayable@@UAE@XZ
??1CSimpleFont6@@UAE@XZ
??1CSndStream@@UAE@XZ
??1CSortedVector@@UAE@XZ
??1CSound4@@UAE@XZ
??1CSoundCodec@@UAE@XZ
??1CSoundCodec_ADPCM@@UAE@XZ
??1CSoundCodec_PCM@@UAE@XZ
??1CSoundManager@@UAE@XZ
??1CSpeakingAnimation@@UAE@XZ
??1CStreamedWAV@@UAE@XZ
??1CStringArray@@UAE@XZ
??1CStringHashCode@@UAE@XZ
??1CStringTokenizer@@UAE@XZ
??1CSurface@@UAE@XZ
??1CSwitchButton@@UAE@XZ
??1CTarga@@UAE@XZ
??1CText6@@UAE@XZ
??1CTextCoder@@UAE@XZ
??1CTextFileReader@@UAE@XZ
??1CTextFormatCode@@UAE@XZ
??1CTreeSequenceElements@@UAE@XZ
??1CUnit6@@UAE@XZ
??1CValidationQuene@@UAE@XZ
??1CWindow@@UAE@XZ
??1CXArchive@@UAE@XZ
??1CXArray@@UAE@XZ
??1CXBitmap@@UAE@XZ
??1CXDialog@@UAE@XZ
??1CXFifoQuene@@UAE@XZ
??1CXLifoQuene@@UAE@XZ
??1CXObject@@UAE@XZ
??1CXPair@@UAE@XZ
??1CXQuene@@UAE@XZ
??1CXRandom@@UAE@XZ
??1CXRect@@UAE@XZ
??1CXString@@UAE@XZ
??1CXTimer@@UAE@XZ
??1CXVector@@UAE@XZ
??1JPEG@@QAE@XZ
??4CAnimationManager@@QAEAAV0@ABV0@@Z
??4CAnimo6@@QAEAAV0@AAV0@@Z
??4CAnimo@@QAEAAV0@AAV0@@Z
??4CApplication@@QAEAAV0@AAV0@@Z
??4CBackgroundManager@CRefreshScreen@@QAEAAV01@ABV01@@Z
??4CBigFile@@QAEAAV0@AAV0@@Z
??4CButton@@QAEAAV0@AAV0@@Z
??4CCanvas@@QAEAAV0@AAV0@@Z
??4CCanvasObserver@@QAEAAV0@ABV0@@Z
??4CCollisionInspector@@QAEAAV0@ABV0@@Z
??4CCollisionObserver@@QAEAAV0@ABV0@@Z
??4CColor@@QAEAAV0@V0@@Z
??4CCommandLine6@@QAEAAV0@AAV0@@Z
??4CCompression@@QAEAAV0@ABV0@@Z
??4CConfig@@QAEAAV0@AAV0@@Z
??4CControl@@QAEAAV0@ABV0@@Z
??4CControlNotifier@@QAEAAV0@ABV0@@Z
??4CDXMouse@@QAEAAV0@ABV0@@Z
??4CDataBuffer2Dim@@QAEAAV0@ABV0@@Z
??4CDataBuffer@@QAEAAV0@ABV0@@Z
??4CDirectDrawSurface@@QAEAAV0@AAV0@@Z
??4CEditBox6@@QAEAAV0@AAV0@@Z
??4CEditBoxNotifier@@QAEAAV0@ABV0@@Z
??4CError@@QAEAAV0@ABV0@@Z
??4CFifoQuene@@QAEAAV0@ABV0@@Z
??4CFile@@QAEAAV0@AAV0@@Z
??4CFileNameResolver@@QAEAAV0@AAV0@@Z
??4CFileResolver@@QAEAAV0@AAV0@@Z
??4CFolder@@QAEAAV0@AAV0@@Z
??4CFont5@@QAEAAV0@AAV0@@Z
??4CFontCollection@@QAEAAV0@AAV0@@Z
??4CFrame@@QAEAAV0@AAV0@@Z
??4CGraphicsObject@@QAEAAV0@AAV0@@Z
??4CHashtable@@QAEAAV0@ABV0@@Z
??4CHotSpot@@QAEAAV0@ABV0@@Z
??4CImage@@QAEAAV0@AAV0@@Z
??4CImageFile@@QAEAAV0@ABV0@@Z
??4CInteger@@QAEAAV0@ABV0@@Z
??4CInvalidateObserver@@QAEAAV0@ABV0@@Z
??4CKeyListener@@QAEAAV0@ABV0@@Z
??4CKeyboard@@QAEAAV0@ABV0@@Z
??4CLZWCompression2@@QAEAAV0@ABV0@@Z
??4CLZWCompression@@QAEAAV0@ABV0@@Z
??4CLanguageOSVer@@QAEAAV0@AAV0@@Z
??4CLifoQuene@@QAEAAV0@ABV0@@Z
??4CMC_Animo@@QAEAAV0@AAV0@@Z
??4CMC_Animo_Runner@@QAEAAV0@ABV0@@Z
??4CMC_Application@@QAEAAV0@AAV0@@Z
??4CMC_Application_Runner@@QAEAAV0@ABV0@@Z
??4CMC_Array@@QAEAAV0@AAV0@@Z
??4CMC_Array_Runner@@QAEAAV0@ABV0@@Z
??4CMC_BasicCondition@@QAEAAV0@AAV0@@Z
??4CMC_BasicCondition_Runner@@QAEAAV0@ABV0@@Z
??4CMC_Behaviour@@QAEAAV0@AAV0@@Z
??4CMC_Behaviour_Entry@@QAEAAV0@AAV0@@Z
??4CMC_Behaviour_Runner@@QAEAAV0@ABV0@@Z
??4CMC_Bool@@QAEAAV0@AAV0@@Z
??4CMC_Button@@QAEAAV0@AAV0@@Z
??4CMC_Button_Runner@@QAEAAV0@ABV0@@Z
??4CMC_CNVLoader@@QAEAAV0@AAV0@@Z
??4CMC_CNVLoader_Runner@@QAEAAV0@ABV0@@Z
??4CMC_Canvas@@QAEAAV0@AAV0@@Z
??4CMC_CanvasObserver@@QAEAAV0@AAV0@@Z
??4CMC_CanvasObserver_Runner@@QAEAAV0@ABV0@@Z
??4CMC_Canvas_Runner@@QAEAAV0@ABV0@@Z
??4CMC_Class@@QAEAAV0@AAV0@@Z
??4CMC_Class_Runner@@QAEAAV0@ABV0@@Z
??4CMC_ComplexCondition@@QAEAAV0@AAV0@@Z
??4CMC_Condition@@QAEAAV0@AAV0@@Z
??4CMC_DLLExModuleInterface@@QAEAAV0@AAV0@@Z
??4CMC_Database@@QAEAAV0@AAV0@@Z
??4CMC_Database_Runner@@QAEAAV0@ABV0@@Z
??4CMC_Dialog@@QAEAAV0@AAV0@@Z
??4CMC_Dialog_Runner@@QAEAAV0@ABV0@@Z
??4CMC_Double@@QAEAAV0@AAV0@@Z
??4CMC_EditBox@@QAEAAV0@AAV0@@Z
??4CMC_EditBox_Runner@@QAEAAV0@ABV0@@Z
??4CMC_Episode@@QAEAAV0@AAV0@@Z
??4CMC_Episode_Runner@@QAEAAV0@ABV0@@Z
??4CMC_Expression@@QAEAAV0@AAV0@@Z
??4CMC_ExternObject@@QAEAAV0@ABV0@@Z
??4CMC_Font@@QAEAAV0@AAV0@@Z
??4CMC_Font_Runner@@QAEAAV0@ABV0@@Z
??4CMC_Groupped@@QAEAAV0@AAV0@@Z
??4CMC_Groupped_Runner@@QAEAAV0@ABV0@@Z
??4CMC_Image@@QAEAAV0@AAV0@@Z
??4CMC_Image_Runner@@QAEAAV0@ABV0@@Z
??4CMC_Integer@@QAEAAV0@AAV0@@Z
??4CMC_Joystick@@QAEAAV0@AAV0@@Z
??4CMC_Joystick_Runner@@QAEAAV0@ABV0@@Z
??4CMC_Keyboard@@QAEAAV0@AAV0@@Z
??4CMC_Keyboard_Runner@@QAEAAV0@ABV0@@Z
??4CMC_Mouse@@QAEAAV0@AAV0@@Z
??4CMC_Mouse_Runner@@QAEAAV0@ABV0@@Z
??4CMC_MultiArray@@QAEAAV0@AAV0@@Z
??4CMC_MultiArray_Runner@@QAEAAV0@ABV0@@Z
??4CMC_NetClient@@QAEAAV0@AAV0@@Z
??4CMC_NetClient_Runner@@QAEAAV0@ABV0@@Z
??4CMC_NetServer@@QAEAAV0@AAV0@@Z
??4CMC_NetServer_Runner@@QAEAAV0@ABV0@@Z
??4CMC_Object@@QAEAAV0@AAV0@@Z
??4CMC_ObjectsContainer@@QAEAAV0@AAV0@@Z
??4CMC_Pattern@@QAEAAV0@AAV0@@Z
??4CMC_Pattern_Runner@@QAEAAV0@ABV0@@Z
??4CMC_Rand_Runner@@QAEAAV0@ABV0@@Z
??4CMC_Runner@@QAEAAV0@ABV0@@Z
??4CMC_RunnerFactory@@QAEAAV0@ABV0@@Z
??4CMC_Scene@@QAEAAV0@AAV0@@Z
??4CMC_Scene_Runner@@QAEAAV0@ABV0@@Z
??4CMC_Scroll@@QAEAAV0@AAV0@@Z
??4CMC_Scroll_Runner@@QAEAAV0@ABV0@@Z
??4CMC_Sequence@@QAEAAV0@AAV0@@Z
??4CMC_Sequence_Runner@@QAEAAV0@ABV0@@Z
??4CMC_Sound@@QAEAAV0@AAV0@@Z
??4CMC_Sound_Runner@@QAEAAV0@ABV0@@Z
??4CMC_String@@QAEAAV0@AAV0@@Z
??4CMC_Structure@@QAEAAV0@AAV0@@Z
??4CMC_StructureParser@@QAEAAV0@ABV0@@Z
??4CMC_Structure_Runner@@QAEAAV0@ABV0@@Z
??4CMC_System@@QAEAAV0@AAV0@@Z
??4CMC_System_Runner@@QAEAAV0@ABV0@@Z
??4CMC_Text@@QAEAAV0@AAV0@@Z
??4CMC_Text_Runner@@QAEAAV0@ABV0@@Z
??4CMC_Timer@@QAEAAV0@AAV0@@Z
??4CMC_Timer_Runner@@QAEAAV0@ABV0@@Z
??4CMC_Variable@@QAEAAV0@AAV0@@Z
??4CMC_VariableFactory@@QAEAAV0@ABV0@@Z
??4CMC_Variable_Runner@@QAEAAV0@ABV0@@Z
??4CMC_VirtualGraphicsObject@@QAEAAV0@AAV0@@Z
??4CMC_VirtualGraphicsObject_Runner@@QAEAAV0@ABV0@@Z
??4CMElement@@QAEAAV0@AAV0@@Z
??4CMElementCreator@@QAEAAV0@ABV0@@Z
??4CMElements@@QAEAAV0@ABV0@@Z
??4CMElementsLoader@@QAEAAV0@ABV0@@Z
??4CMProperties@@QAEAAV0@ABV0@@Z
??4CMProperty@@QAEAAV0@AAV0@@Z
??4CMemStorage@@QAEAAV0@ABV0@@Z
??4CMemStream@@QAEAAV0@ABV0@@Z
??4CMemoryDbg@@QAEAAV0@ABV0@@Z
??4CMouseListener@@QAEAAV0@ABV0@@Z
??4CMultilineText6@@QAEAAV0@AAV0@@Z
??4CMultimediaSequenceCreator@@QAEAAV0@ABV0@@Z
??4CNetBehaviourMessage@@QAEAAV0@ABV0@@Z
??4CNetClientListener@@QAEAAV0@ABV0@@Z
??4CNetCmdMessage@@QAEAAV0@ABV0@@Z
??4CNetMessage@@QAEAAV0@ABV0@@Z
??4CNetPlayerInfo@@QAEAAV0@AAV0@@Z
??4CNetServerListener@@QAEAAV0@ABV0@@Z
??4CNetVariableMessage@@QAEAAV0@ABV0@@Z
??4CNetworkClient@@QAEAAV0@ABV0@@Z
??4CNetworkServer@@QAEAAV0@ABV0@@Z
??4CPSD@@QAEAAV0@AAV0@@Z
??4CPath@@QAEAAV0@AAV0@@Z
??4CPattern@@QAEAAV0@AAV0@@Z
??4CPlayable@@QAEAAV0@AAV0@@Z
??4CPlayableObserver@@QAEAAV0@ABV0@@Z
??4CPrinter@@QAEAAV0@ABV0@@Z
??4CQuene@@QAEAAV0@ABV0@@Z
??4CRLECompression2@@QAEAAV0@ABV0@@Z
??4CRLECompression@@QAEAAV0@ABV0@@Z
??4CRandomPlayable@@QAEAAV0@ABV0@@Z
??4CRandomPlayableEntry@@QAEAAV0@AAV0@@Z
??4CRandomPlayableNotifier@@QAEAAV0@ABV0@@Z
??4CRefreshScreen@@QAEAAV0@AAV0@@Z
??4CResourcesManager@@QAEAAV0@ABV0@@Z
??4CSequencedPlayable@@QAEAAV0@AAV0@@Z
??4CSimpleFont6@@QAEAAV0@AAV0@@Z
??4CSndStream@@QAEAAV0@ABV0@@Z
??4CSortedVector@@QAEAAV0@ABV0@@Z
??4CSound4@@QAEAAV0@AAV0@@Z
??4CSoundCodec@@QAEAAV0@ABV0@@Z
??4CSoundCodec_ADPCM@@QAEAAV0@ABV0@@Z
??4CSoundCodec_PCM@@QAEAAV0@ABV0@@Z
??4CSoundManager@@QAEAAV0@ABV0@@Z
??4CSpeakingAnimation@@QAEAAV0@AAV0@@Z
??4CStreamedWAV@@QAEAAV0@AAV0@@Z
??4CStringArray@@QAEAAV0@ABV0@@Z
??4CStringHashCode@@QAEAAV0@ABV0@@Z
??4CStringTokenizer@@QAEAAV0@AAV0@@Z
??4CSurface@@QAEAAV0@ABV0@@Z
??4CSwitchButton@@QAEAAV0@ABV0@@Z
??4CTarga@@QAEAAV0@AAV0@@Z
??4CText6@@QAEAAV0@AAV0@@Z
??4CTextCoder@@QAEAAV0@AAV0@@Z
??4CTextFileReader@@QAEAAV0@ABV0@@Z
??4CTextFormatCode@@QAEAAV0@AAV0@@Z
??4CTimerNotificator@@QAEAAV0@ABV0@@Z
??4CTreeSequenceElements@@QAEAAV0@ABV0@@Z
??4CUnit6@@QAEAAV0@AAV0@@Z
??4CValidationQuene@@QAEAAV0@ABV0@@Z
??4CWindow@@QAEAAV0@AAV0@@Z
??4CXArchive@@QAEAAV0@ABV0@@Z
??4CXArray@@QAEAAV0@ABV0@@Z
??4CXBitmap@@QAEAAV0@AAV0@@Z
??4CXDialog@@QAEAAV0@ABV0@@Z
??4CXFifoQuene@@QAEAAV0@ABV0@@Z
??4CXLifoQuene@@QAEAAV0@ABV0@@Z
??4CXObject@@QAEAAV0@ABV0@@Z
??4CXPair@@QAEAAV0@AAV0@@Z
??4CXPoint@@QAEAAV0@ABV0@@Z
??4CXQuene@@QAEAAV0@ABV0@@Z
??4CXRandom@@QAEAAV0@ABV0@@Z
??4CXRect@@QAEXV0@@Z
??4CXSize@@QAEAAV0@ABV0@@Z
??4CXString@@QAEABV0@AAV0@@Z
??4CXString@@QAEABV0@D@Z
??4CXString@@QAEABV0@H@Z
??4CXString@@QAEABV0@N@Z
??4CXString@@QAEABV0@PAD@Z
??4CXTimer@@QAEAAV0@ABV0@@Z
??4CXVector@@QAEAAV0@ABV0@@Z
??4JPEG@@QAEAAV0@ABV0@@Z
??5CRefreshScreen@@QAEAAV0@PAVCGraphicsObject@@@Z
??5CWindow@@QAEAAVCRefreshScreen@@PAVCGraphicsObject@@@Z
??5CXArchive@@QAEAAV0@PAD@Z
??5CXArchive@@QAEAAV0@PAE@Z
??5CXArchive@@QAEAAV0@PAH@Z
??5CXArchive@@QAEAAV0@PAK@Z
??5CXArchive@@QAEAAV0@PAN@Z
??5CXArchive@@QAEAAV0@PAPAD@Z
??5CXArchive@@QAEAAV0@PAVCXRect@@@Z
??5CXArchive@@QAEAAV0@PAVCXString@@@Z
??5CXArchive@@QAEAAV0@PA_J@Z
??5CXArchive@@QAEAAV0@PA_N@Z
??6CError@@QAEHH@Z
??6CError@@QAEHPAD@Z
??6CRefreshScreen@@QAEAAV0@PAVCGraphicsObject@@@Z
??6CWindow@@QAEAAVCRefreshScreen@@PAVCGraphicsObject@@@Z
??6CXArchive@@QAEAAV0@H@Z
??6CXArchive@@QAEAAV0@K@Z
??6CXArchive@@QAEAAV0@N@Z
??6CXArchive@@QAEAAV0@PAD@Z
??6CXArchive@@QAEAAV0@VCXRect@@@Z
??6CXArchive@@QAEAAV0@VCXString@@@Z
??6CXArchive@@QAEAAV0@_J@Z
??6CXArchive@@QAEAAV0@_N@Z
??8@YA_NAAVCColor@@0@Z
??8@YA_NABVCXString@@0@Z
??8@YA_NABVCXString@@PAD@Z
??8@YA_NPADABVCXString@@@Z
??8CXPoint@@QAE_NV0@@Z
??8CXRect@@QAE_NV0@@Z
??9@YA_NAAVCColor@@0@Z
??9@YA_NABVCXString@@0@Z
??9@YA_NABVCXString@@PAD@Z
??9@YA_NPADABVCXString@@@Z
??9CXPoint@@QAE_NV0@@Z
??9CXRect@@QAE_NV0@@Z
??ACXArray@@UAEPAXH@Z
??ACXVector@@UAEPAVCXObject@@H@Z
??BCDataBuffer@@QAEPADXZ
??BCDataBuffer@@QAEPAFXZ
??ECDataBuffer@@QAEXXZ
??FCDataBuffer@@QAEXXZ
??GCXPoint@@QBE?AV0@H@Z
??GCXPoint@@QBE?AV0@V0@@Z
??GCXRect@@QAE?AV0@V0@@Z
??GCXRect@@QAE?AV0@VCXPoint@@@Z
??GCXRect@@QAE?AV0@VCXSize@@@Z
??H@YA?AVCXString@@AAV0@0@Z
??H@YA?AVCXString@@AAV0@PAD@Z
??H@YA?AVCXString@@PADAAV0@@Z
??HCXPoint@@QBE?AV0@H@Z
??HCXPoint@@QBE?AV0@V0@@Z
??HCXRect@@QAE?AV0@V0@@Z
??HCXRect@@QAE?AV0@VCXPoint@@@Z
??HCXRect@@QAE?AV0@VCXSize@@@Z
??ICXRect@@QAE?AV0@V0@@Z
??UCXRect@@QAE?AV0@V0@@Z
??YCDataBuffer@@QAEXH@Z
??YCXRect@@QAEXV0@@Z
??YCXRect@@QAEXVCXPoint@@@Z
??YCXRect@@QAEXVCXSize@@@Z
??YCXString@@QAEABV0@AAV0@@Z
??YCXString@@QAEABV0@D@Z
??YCXString@@QAEABV0@H@Z
??YCXString@@QAEABV0@N@Z
??YCXString@@QAEABV0@PAD@Z
??ZCDataBuffer@@QAEXH@Z
??ZCXRect@@QAEXV0@@Z
??ZCXRect@@QAEXVCXPoint@@@Z
??ZCXRect@@QAEXVCXSize@@@Z
??_4CXRect@@QAEXV0@@Z
??_5CXRect@@QAEXV0@@Z
??_7CAnimationManager@@6B@
??_7CAnimo6@@6B@
??_7CAnimo6@@6BCInvalidateObserver@@@
??_7CAnimo6@@6BCXObject@@@
??_7CAnimo@@6B@
??_7CAnimo@@6BCInvalidateObserver@@@
??_7CAnimo@@6BCXObject@@@
??_7CApplication@@6B@
??_7CBackgroundManager@CRefreshScreen@@6B@
??_7CBigFile@@6B@
??_7CButton@@6BCKeyListener@@@
??_7CButton@@6BCXObject@@@
??_7CCanvas@@6BCInvalidateObserver@@@
??_7CCanvas@@6BCXObject@@@
??_7CCanvasObserver@@6B@
??_7CCollisionInspector@@6B@
??_7CCollisionObserver@@6B@
??_7CColor@@6B@
??_7CCompression@@6B@
??_7CConfig@@6B@
??_7CControl@@6BCKeyListener@@@
??_7CControl@@6BCXObject@@@
??_7CControlNotifier@@6B@
??_7CDataBuffer2Dim@@6B@
??_7CDataBuffer@@6B@
??_7CDirectDrawSurface@@6BCInvalidateObserver@@@
??_7CDirectDrawSurface@@6BCXObject@@@
??_7CEditBox6@@6BCControlNotifier@@@
??_7CEditBox6@@6BCKeyListener@@@
??_7CEditBox6@@6BCMouseListener@@@
??_7CEditBox6@@6BCTimerNotificator@@@
??_7CEditBox6@@6BCXObject@@@
??_7CEditBoxNotifier@@6B@
??_7CFifoQuene@@6B@
??_7CFile@@6B@
??_7CFileNameResolver@@6B@
??_7CFileResolver@@6B@
??_7CFolder@@6B@
??_7CFont5@@6B@
??_7CFontCollection@@6BCInvalidateObserver@@@
??_7CFontCollection@@6BCXObject@@@
??_7CFrame@@6BCInvalidateObserver@@@
??_7CFrame@@6BCXObject@@@
??_7CGraphicsObject@@6BCInvalidateObserver@@@
??_7CGraphicsObject@@6BCXObject@@@
??_7CHashtable@@6B@
??_7CHotSpot@@6B@
??_7CImage@@6B@
??_7CImage@@6BCInvalidateObserver@@@
??_7CImage@@6BCXObject@@@
??_7CImageFile@@6B@
??_7CInteger@@6B@
??_7CInvalidateObserver@@6B@
??_7CKeyListener@@6B@
??_7CKeyboard@@6B@
??_7CLZWCompression2@@6B@
??_7CLZWCompression@@6B@
??_7CLifoQuene@@6B@
??_7CMC_Animo@@6BCCollisionObserver@@@
??_7CMC_Animo@@6BCMC_Object@@@
??_7CMC_Animo@@6BCMouseListener@@@
??_7CMC_Animo@@6BCPlayableObserver@@@
??_7CMC_Animo_Runner@@6B@
??_7CMC_Application@@6B@
??_7CMC_Application_Runner@@6B@
??_7CMC_Array@@6B@
??_7CMC_Array_Runner@@6B@
??_7CMC_BasicCondition@@6B@
??_7CMC_BasicCondition_Runner@@6B@
??_7CMC_Behaviour@@6BCMC_Object@@@
??_7CMC_Behaviour@@6BCTimerNotificator@@@
??_7CMC_Behaviour_Entry@@6B@
??_7CMC_Behaviour_Runner@@6B@
??_7CMC_Bool@@6B@
??_7CMC_Button@@6BCControlNotifier@@@
??_7CMC_Button@@6BCMC_Object@@@
??_7CMC_Button_Runner@@6B@
??_7CMC_CNVLoader@@6B@
??_7CMC_CNVLoader_Runner@@6B@
??_7CMC_Canvas@@6BCMC_Object@@@
??_7CMC_Canvas@@6BCMouseListener@@@
??_7CMC_CanvasObserver@@6BCCanvasObserver@@@
??_7CMC_CanvasObserver@@6BCMC_Object@@@
??_7CMC_CanvasObserver_Runner@@6B@
??_7CMC_Canvas_Runner@@6B@
??_7CMC_Class@@6B@
??_7CMC_Class_Runner@@6B@
??_7CMC_ComplexCondition@@6B@
??_7CMC_Condition@@6B@
??_7CMC_DLLExModuleInterface@@6B@
??_7CMC_Database@@6B@
??_7CMC_Database_Runner@@6B@
??_7CMC_Dialog@@6B@
??_7CMC_Dialog_Runner@@6B@
??_7CMC_Double@@6B@
??_7CMC_EditBox@@6BCEditBoxNotifier@@@
??_7CMC_EditBox@@6BCMC_Object@@@
??_7CMC_EditBox_Runner@@6B@
??_7CMC_Episode@@6B@
??_7CMC_Episode_Runner@@6B@
??_7CMC_Expression@@6B@
??_7CMC_ExternObject@@6B@
??_7CMC_Font@@6B@
??_7CMC_Font_Runner@@6B@
??_7CMC_Groupped@@6B@
??_7CMC_Groupped_Runner@@6B@
??_7CMC_Image@@6BCCollisionObserver@@@
??_7CMC_Image@@6BCMC_Object@@@
??_7CMC_Image@@6BCMouseListener@@@
??_7CMC_Image_Runner@@6B@
??_7CMC_Integer@@6B@
??_7CMC_Joystick@@6B@
??_7CMC_Joystick_Runner@@6B@
??_7CMC_Keyboard@@6BCKeyListener@@@
??_7CMC_Keyboard@@6BCMC_Object@@@
??_7CMC_Keyboard_Runner@@6B@
??_7CMC_Mouse@@6BCMC_Object@@@
??_7CMC_Mouse@@6BCMouseListener@@@
??_7CMC_Mouse_Runner@@6B@
??_7CMC_MultiArray@@6B@
??_7CMC_MultiArray_Runner@@6B@
??_7CMC_NetClient@@6BCMC_Object@@@
??_7CMC_NetClient@@6BCNetClientListener@@@
??_7CMC_NetClient_Runner@@6B@
??_7CMC_NetServer@@6BCMC_Object@@@
??_7CMC_NetServer@@6BCNetServerListener@@@
??_7CMC_NetServer_Runner@@6B@
??_7CMC_Object@@6B@
??_7CMC_ObjectsContainer@@6B@
??_7CMC_Pattern@@6BCMC_Object@@@
??_7CMC_Pattern@@6BCMouseListener@@@
??_7CMC_Pattern_Runner@@6B@
??_7CMC_Rand_Runner@@6B@
??_7CMC_Runner@@6B@
??_7CMC_Scene@@6B@
??_7CMC_Scene_Runner@@6B@
??_7CMC_Scroll@@6B@
??_7CMC_Scroll_Runner@@6B@
??_7CMC_Sequence@@6BCMC_Object@@@
??_7CMC_Sequence@@6BCPlayableObserver@@@
??_7CMC_Sequence_Runner@@6B@
??_7CMC_Sound@@6BCMC_Object@@@
??_7CMC_Sound@@6BCPlayableObserver@@@
??_7CMC_Sound_Runner@@6B@
??_7CMC_String@@6B@
??_7CMC_Structure@@6B@
??_7CMC_StructureParser@@6B@
??_7CMC_Structure_Runner@@6B@
??_7CMC_System@@6B@
??_7CMC_System_Runner@@6B@
??_7CMC_Text@@6B@
??_7CMC_Text_Runner@@6B@
??_7CMC_Timer@@6BCMC_Object@@@
??_7CMC_Timer@@6BCTimerNotificator@@@
??_7CMC_Timer_Runner@@6B@
??_7CMC_Variable@@6B@
??_7CMC_Variable_Runner@@6B@
??_7CMC_VirtualGraphicsObject@@6BCCollisionObserver@@@
??_7CMC_VirtualGraphicsObject@@6BCMC_Object@@@
??_7CMC_VirtualGraphicsObject@@6BCMouseListener@@@
??_7CMC_VirtualGraphicsObject_Runner@@6B@
??_7CMElement@@6B@
??_7CMElementCreator@@6B@
??_7CMElements@@6B@
??_7CMElementsLoader@@6B@
??_7CMProperties@@6B@
??_7CMProperty@@6B@
??_7CMouseListener@@6B@
??_7CMultilineText6@@6BCInvalidateObserver@@@
??_7CMultilineText6@@6BCXObject@@@
??_7CMultimediaSequenceCreator@@6B@
??_7CNetBehaviourMessage@@6B@
??_7CNetClientListener@@6B@
??_7CNetCmdMessage@@6B@
??_7CNetMessage@@6B@
??_7CNetPlayerInfo@@6B@
??_7CNetServerListener@@6B@
??_7CNetVariableMessage@@6B@
??_7CNetworkClient@@6B@
??_7CNetworkServer@@6B@
??_7CPSD@@6BCInvalidateObserver@@@
??_7CPSD@@6BCXObject@@@
??_7CPath@@6B@
??_7CPattern@@6BCInvalidateObserver@@@
??_7CPattern@@6BCXObject@@@
??_7CPlayable@@6B@
??_7CPlayableObserver@@6B@
??_7CQuene@@6B@
??_7CRLECompression2@@6B@
??_7CRLECompression@@6B@
??_7CRandomPlayable@@6BCTimerNotificator@@@
??_7CRandomPlayable@@6BCXObject@@@
??_7CRandomPlayableEntry@@6BCPlayableObserver@@@
??_7CRandomPlayableEntry@@6BCXObject@@@
??_7CRandomPlayableNotifier@@6B@
??_7CRefreshScreen@@6BCInvalidateObserver@@@
??_7CRefreshScreen@@6BCXObject@@@
??_7CResourcesManager@@6B@
??_7CSequencedPlayable@@6BCPlayable@@@
??_7CSequencedPlayable@@6BCPlayableObserver@@@
??_7CSimpleFont6@@6BCInvalidateObserver@@@
??_7CSimpleFont6@@6BCXObject@@@
??_7CSndStream@@6B@
??_7CSortedVector@@6B@
??_7CSound4@@6B@
??_7CSoundCodec@@6B@
??_7CSoundCodec_ADPCM@@6B@
??_7CSoundCodec_PCM@@6B@
??_7CSoundManager@@6B@
??_7CSpeakingAnimation@@6BCPlayable@@@
??_7CSpeakingAnimation@@6BCPlayableObserver@@@
??_7CStreamedWAV@@6B@
??_7CStringArray@@6B@
??_7CStringHashCode@@6B@
??_7CStringTokenizer@@6B@
??_7CSurface@@6B@
??_7CSwitchButton@@6BCKeyListener@@@
??_7CSwitchButton@@6BCXObject@@@
??_7CTarga@@6BCInvalidateObserver@@@
??_7CTarga@@6BCXObject@@@
??_7CText6@@6BCInvalidateObserver@@@
??_7CText6@@6BCXObject@@@
??_7CTextCoder@@6B@
??_7CTextFileReader@@6B@
??_7CTextFormatCode@@6B@
??_7CTimerNotificator@@6B@
??_7CTreeSequenceElements@@6B@
??_7CUnit6@@6BCControlNotifier@@@
??_7CUnit6@@6BCKeyListener@@@
??_7CUnit6@@6BCMouseListener@@@
??_7CUnit6@@6BCPlayableObserver@@@
??_7CUnit6@@6BCRandomPlayableNotifier@@@
??_7CUnit6@@6BCXObject@@@
??_7CValidationQuene@@6B@
??_7CWindow@@6B@
??_7CXArchive@@6B@
??_7CXArray@@6B@
??_7CXBitmap@@6BCInvalidateObserver@@@
??_7CXBitmap@@6BCXObject@@@
??_7CXDialog@@6BCControlNotifier@@@
??_7CXDialog@@6BCXObject@@@
??_7CXFifoQuene@@6B@
??_7CXLifoQuene@@6B@
??_7CXObject@@6B@
??_7CXPair@@6B@
??_7CXQuene@@6B@
??_7CXRandom@@6B@
??_7CXRect@@6B@
??_7CXString@@6B@
??_7CXTimer@@6B@
??_7CXVector@@6B@
??_C@_00A@?$AA@
??_C@_0L@HNIG@ONCHANGED?$FO?$AA@
??_FCBigFile@@QAEXXZ
??_FCMElements@@QAEXXZ
??_FCMemStorage@@QAEXXZ
??_FCSortedVector@@QAEXXZ
??_FCStringArray@@QAEXXZ
??_FCXArray@@QAEXXZ
??_FCXPoint@@QAEXXZ
??_FCXRect@@QAEXXZ
??_FCXSize@@QAEXXZ
??_FCXVector@@QAEXXZ
?AbsSum@CXSize@@QAEHXZ
?Accent@CButton@@QAEXPAVCGraphicsObject@@@Z
?Accent@CButton@@QAEXW4_accent@@@Z
?Accent@CSwitchButton@@QAEXPAVCGraphicsObject@@@Z
?Accent@CSwitchButton@@QAEXW4_accent@@@Z
?Activate@CWindow@@QAEX_N@Z
?AddEvent@CAnimo@@QAEXPAU_annEventInfo3@@@Z
?AddFrame@CAnimo@@QAEPAVCFrame@@PAVCGraphicsObject@@@Z
?AddFrame@CAnimo@@QAEXHHH@Z
?AddNextWriteOffset@CSndStream@@QAEXH@Z
?AddOpacity@CGraphicsObject@@QAEXF@Z
?AllTrim@CXString@@QAEAAV1@E@Z
?Alloc@CGraphicsObject@@QAEXXZ
?AlphaChannel@CGraphicsObject@@QAEPADPAD@Z
?Author@CAnimo@@QAEAAVCXString@@XZ
?BeginActiveCursor@CWindow@@QAEXXZ
?BeginWaitCursor@CWindow@@QAEXXZ
?Blend@CGraphicsObject@@UAEXPADPAHHH@Z
?Blt@CDirectDrawSurface@@QAEXPAV1@HHPAVCXRect@@@Z
?Blt@CDirectDrawSurface@@QAEXPAV1@PAVCXRect@@1@Z
?Blt@CDirectDrawSurface@@QAEXPAV1@VCXPoint@@PAVCXRect@@@Z
?Blt@CSurface@@QAEXPAVCDirectDrawSurface@@HHPAVCXRect@@@Z
?Blt@CSurface@@QAEXPAVCDirectDrawSurface@@PAVCXRect@@1@Z
?Blt@CSurface@@QAEXPAVCDirectDrawSurface@@VCXPoint@@PAVCXRect@@@Z
?BlueChannel@CGraphicsObject@@QAEPADPAD@Z
?BottomRight@CXRect@@QAE?AVCXPoint@@XZ
?COMMON_FOLDER@CFolder@@2VCXString@@A
?CenterPoint@CXRect@@QAE?AVCXPoint@@XZ
?ChDir@CBigFile@@QAEHVCXString@@@Z
?ClearWAVEntry@CAnimo@@QAEXHH@Z
?ClientCoords@CAnimo6@@UAE?AVCXPoint@@V2@@Z
?ClientCoords@CGraphicsObject@@UAE?AVCXPoint@@V2@@Z
?Close@CFile@@QAEHXZ
?Close@CSndStream@@QAEXXZ
?Close@CStreamedWAV@@QAEXXZ
?Close@CXArchive@@QAEXXZ
?Common@CXRect@@QAE?AV1@V1@@Z
?Common@CXRect@@QAEXV1@PAV1@@Z
?Compress@CGraphicsObject@@QAEXW4_compression@@@Z
?Compress@CRLECompression2@@QAEPADAAH@Z
?Continue@CAnimo@@UAEXXZ
?Convert@CAnimo@@QAEXH@Z
?Convert@CColor@@QAEHW4_colormodel@@@Z
?Convert@CGraphicsObject@@QAEXH@Z
?Copy@CGraphicsObject@@QAEXPAV1@@Z
?Copy@CGraphicsObject@@QAEXPAV1@VCXRect@@@Z
?CopyFileA@CXArchive@@QAEAAV1@VCXString@@@Z
?Create@CBigFile@@QAE_NVCXString@@00@Z
?CreateClipper@CSurface@@QAEXPAUHWND__@@@Z
?CreateDirectSoundInterface@CSound4@@SAPAUIDirectSound@@PAVCWindow@@@Z
?CreatePrimarySoundBuffer@CSound4@@SAPAUIDirectSoundBuffer@@PAVCWindow@@@Z
?CreateSurface@CWindow@@QAEHXZ
?Current@CAnimo@@UAEHXZ
?DATA_FOLDER@CFolder@@2VCXString@@A
?DeCompress@CAnimo@@UAEXXZ
?DeCompress@CGraphicsObject@@UAEXXZ
?DeCompressRLE2@CAnimo@@UAEXXZ
?DeCompressRLE2@CGraphicsObject@@UAEXXZ
?Decompress@CRLECompression2@@QAEPADH@Z
?Description@CAnimo@@QAEAAVCXString@@XZ
?DestroySoundBuffer@CSound4@@SAXXZ
?DirExists@CBigFile@@QAE_NVCXString@@@Z
?DisableButVisible@CButton@@UAEXXZ
?DisableButVisible@CSwitchButton@@QAEXXZ
?DonePlaying@CSndStream@@QAE_NXZ
?Empty@CRefreshScreen@@QAEXXZ
?Empty@CXRect@@QAEXXZ
?Enable@CButton@@UAEX_N@Z
?Enable@CControl@@UAEX_N@Z
?Enable@CHotSpot@@QAEX_N@Z
?Enable@CSwitchButton@@UAEX_N@Z
?EnableCursor@CButton@@QAEX_N@Z
?EnableCursor@CHotSpot@@QAEX_N@Z
?EnableCursor@CSwitchButton@@QAEX_N@Z
?EnableDragging@CButton@@QAEX_N@Z
?EnableDragging@CSwitchButton@@QAEX_N@Z
?EndActiveCursor@CWindow@@QAEXXZ
?EndWaitCursor@CWindow@@QAEXXZ
?EnumDisplayModes@CSurface@@QAEXXZ
?ExchangeFrames@CAnimo@@QAEXHHH@Z
?Explode@CXRect@@QAEAAV1@H@Z
?Explode@CXRect@@QAEXHH@Z
?Explode@CXRect@@QAEXVCXPoint@@@Z
?Explode@CXRect@@QAEXVCXSize@@@Z
?ExtractFile@CBigFile@@QAE_NVCXString@@0@Z
?FRead@CXArchive@@QAEAAV1@AAVCXString@@@Z
?FWrite@CXArchive@@QAEAAV1@AAVCXString@@@Z
?FileExists@CBigFile@@QAE_NVCXString@@@Z
?Fill@CDirectDrawSurface@@UAEXPAVCColor@@@Z
?Fill@CDirectDrawSurface@@UAEXVCXRect@@PAVCColor@@@Z
?Fill@CGraphicsObject@@UAEXPAVCColor@@@Z
?Fill@CGraphicsObject@@UAEXVCXRect@@PAVCColor@@@Z
?FillDataBuffer@CSndStream@@AAEXXZ
?FillInfo@CPath@@AAEXXZ
?FillWith@CXString@@QAEXEH@Z
?FilterFits@CXString@@QAE_NV1@@Z
?Find@CXString@@QAEHDH@Z
?FindFirst@CBigFile@@QAEHVCXString@@PAU_finddata_t@@@Z
?FindFolder@CFolder@@AAE?AVCXString@@E@Z
?FindLast@CXString@@QAEHD@Z
?FindNext@CBigFile@@QAEHHPAU_finddata_t@@@Z
?FindSubString@CXString@@QAEHV1@H@Z
?FitCanvas@CGraphicsObject@@QAEXXZ
?FitObject@CGraphicsObject@@QAEXPAV1@@Z
?FitRect@CGraphicsObject@@QAEXVCXRect@@@Z
?Flip@CSurface@@QAEXXZ
?FlipH@CAnimo6@@UAEXXZ
?FlipH@CGraphicsObject@@UAEXXZ
?FlipV@CAnimo6@@UAEXXZ
?FlipV@CGraphicsObject@@UAEXXZ
?FloodFill@CGraphicsObject@@QAEXVCColor@@PAD@Z
?Flush@CAnimo@@UAEXXZ
?Flush@CGraphicsObject@@UAEXXZ
?Flush@CSound4@@QAEXXZ
?Flush@CSoundManager@@QAEXXZ
?Flush@CStreamedWAV@@AAEXXZ
?Force@CButton@@QAE_N_N@Z
?Force@CSwitchButton@@QAE_N_N@Z
?Format@CXString@@QAEXPADH@Z
?Format@CXString@@QAEXPADHH@Z
?Format@CXString@@QAEXPADV1@@Z
?Format@CXString@@QAEXPADV1@H1@Z
?Format@CXString@@QAEXPADV1@H@Z
?Format@CXString@@QAEXPADV1@HH@Z
?FoundEnd@CSndStream@@QAE_NXZ
?Freeze@CButton@@UAEX_N@Z
?Freeze@CSwitchButton@@UAEX_N@Z
?GetAbsoluteBoundingBox@CAnimo@@UAE?AVCXRect@@XZ
?GetAbsoluteBoundingBox@CGraphicsObject@@UAE?AVCXRect@@XZ
?GetAnimoFlags@CAnimo@@QAE?AW4_animoflags@@XZ
?GetApplicationInterface@CWindow@@QAEPAVCApplication@@XZ
?GetAt@CXString@@QAEDH@Z
?GetAttachedChangeFilter@CAnimo@@QAEEPAPAX@Z
?GetAttachedFilter@CAnimo@@QAEEPAPAX@Z
?GetAutoClip@CGraphicsObject@@QAE_NXZ
?GetBPP@CSurface@@QAEHXZ
?GetBackBufferInterface@CSurface@@QAEPAUIDirectDrawSurface7@@XZ
?GetBitsPerSample@CSndStream@@QAEHXZ
?GetBoundingBox@CAnimo@@UAE?AVCXRect@@XZ
?GetBoundingBox@CGraphicsObject@@UAE?AVCXRect@@XZ
?GetBpp@CGraphicsObject@@QAEHXZ
?GetBpp@CWindow@@QAEHXZ
?GetBufferSize@CSndStream@@QAEHXZ
?GetBufferSize@CStreamedWAV@@QAEHXZ
?GetBytesRemaining@CSndStream@@QAEHXZ
?GetCanvas@CGraphicsObject@@QAEPAVCRefreshScreen@@XZ
?GetCenteredPosition@CXRect@@QAE?AVCXPoint@@PAVCGraphicsObject@@@Z
?GetChannelAlpha@CGraphicsObject@@QAEAAPADXZ
?GetChannelBlue@CGraphicsObject@@QAEAAPADXZ
?GetChannelGreen@CGraphicsObject@@QAEAAPADXZ
?GetChannelRed@CGraphicsObject@@QAEAAPADXZ
?GetChannelSize@CGraphicsObject@@QAEAAHH@Z
?GetClippingRect@CGraphicsObject@@QAE?AVCXRect@@XZ
?GetCompression@CGraphicsObject@@QAE?AW4_compression@@XZ
?GetConfigInterface@CApplication@@QAEPAVCConfig@@XZ
?GetCurrentDirectoryA@CBigFile@@QAE?AVCXString@@XZ
?GetCurrentDirectoryA@CBigFile@@QAEXHPAD@Z
?GetCurrentEvent@CAnimo@@QAE?AW4_animoevent@@XZ
?GetCurrentFrameInSequence@CAnimo@@QAEHXZ
?GetCurrentLayer@CPSD@@QAEPAVCGraphicsObject@@XZ
?GetDataPtr@CDirectDrawSurface@@UAEPADXZ
?GetDataPtr@CGraphicsObject@@UAEPADXZ
?GetDataSize@CGraphicsObject@@QAEHXZ
?GetDestiny@CGraphicsObject@@QAEPAV1@XZ
?GetDirectDrawSurfaceInterface@CDirectDrawSurface@@QAEPAUIDirectDrawSurface7@@XZ
?GetDirection@CAnimo@@QAE?AW4_direction@@XZ
?GetDragging@CButton@@QAEPAVCGraphicsObject@@XZ
?GetEventFrame@CAnimo@@QAEPAVCFrame@@HH@Z
?GetEventInfo@CAnimo@@QAEPAU_annEventInfo3@@H@Z
?GetEventName@CAnimo@@QAE?AVCXString@@H@Z
?GetEventNo@CAnimo@@QAEHH@Z
?GetEventNo@CAnimo@@QAEHVCXString@@@Z
?GetExtension@CPath@@QAE?AVCXString@@XZ
?GetFPS@CAnimo@@UAEHXZ
?GetFile@CBigFile@@QAEPAVCFile@@XZ
?GetFileHandle@CXArchive@@QAEPAVCFile@@XZ
?GetFileName@CFile@@QBEPBDXZ
?GetFileName@CFolder@@UAE?AVCXString@@V2@@Z
?GetFlagBpp@CGraphicsObject@@QAEHH@Z
?GetFlags@CControl@@QAEHXZ
?GetFlags@CGraphicsObject@@QAEHXZ
?GetFlags@CRefreshScreen@@QAEHPAVCGraphicsObject@@@Z
?GetFolderName@CFolder@@UAE?AVCXString@@V2@@Z
?GetFolderType@CFolder@@AAE?AVCXString@@V2@@Z
?GetFrame@CAnimo@@UAEPAVCFrame@@H@Z
?GetFrameInfo@CAnimo@@QAEPAU_anmFrameInfo3@@H@Z
?GetFrameInfo@CAnimo@@QAEPAU_anmFrameInfo3@@HH@Z
?GetFrameNo@CAnimo@@QAEHHH@Z
?GetFrameNo@CAnimo@@QAEHHVCXString@@@Z
?GetFrameNo@CAnimo@@QAEHXZ
?GetFramePosition@CFrame@@QAE?AVCXPoint@@XZ
?GetFullPath@CPath@@QAE?AVCXString@@V2@0@Z
?GetFullPath@CPath@@QAE?AVCXString@@V2@@Z
?GetGlobalPosition@CAnimo@@QAE?AVCXPoint@@XZ
?GetGraphicsObject@CImageFile@@QAEPAVCGraphicsObject@@XZ
?GetHandle@CFile@@QAEPAU_iobuf@@XZ
?GetHwnd@CWindow@@QAEPAUHWND__@@XZ
?GetID@CButton@@UAEHXZ
?GetID@CHotSpot@@QAEHXZ
?GetID@CSwitchButton@@QAEHXZ
?GetImageBitmap@CPrinter@@AAEPAUHBITMAP__@@AAUtagBITMAP@@AAPAXVCXRect@@@Z
?GetInBPP@CColor@@QAEHH@Z
?GetInt@CConfig@@QAEHVCXString@@0@Z
?GetLayerName@CPSD@@QAE?AVCXString@@H@Z
?GetLayerNo@CPSD@@QAEHXZ
?GetLayerRect@CPSD@@QAE?AVCXRect@@H@Z
?GetLine@CFile@@QAEXPADH@Z
?GetLocalDestiny@CRefreshScreen@@QAEPAVCDirectDrawSurface@@XZ
?GetLoop@CAnimo@@QAEHW4_animoevent@@AAVCXPoint@@@Z
?GetMainCursor@CWindow@@QAEPAUHICON__@@XZ
?GetMaxHeight@CAnimo6@@QAEHXZ
?GetMaxWidth@CAnimo6@@QAEHXZ
?GetNOE@CAnimo@@QAEHXZ
?GetNOF@CAnimo@@UAEHXZ
?GetNOFInEvent@CAnimo@@QAEHH@Z
?GetNOFInEvent@CAnimo@@QAEHVCXString@@@Z
?GetName@CAnimo@@QAE?AVCXString@@HHV2@@Z
?GetNextFileName@CFolder@@UAE?AVCXString@@XZ
?GetNextWriteOffset@CSndStream@@QAEHXZ
?GetOffset@CBigFile@@QAEHVCXString@@@Z
?GetOnClick@CButton@@QAEPAVCGraphicsObject@@XZ
?GetOnClickA@CSwitchButton@@QAEPAVCGraphicsObject@@XZ
?GetOnClickB@CSwitchButton@@QAEPAVCGraphicsObject@@XZ
?GetOnMove@CButton@@QAEPAVCGraphicsObject@@XZ
?GetOnMove@CSwitchButton@@QAEPAVCGraphicsObject@@XZ
?GetOpacity@CGraphicsObject@@QAEEXZ
?GetPitch@CGraphicsObject@@QAEHXZ
?GetPixel@CAnimo@@UAEEW4_channel@@VCXPoint@@@Z
?GetPixel@CGraphicsObject@@UAE?AVCColor@@HH@Z
?GetPixel@CGraphicsObject@@UAE?AVCColor@@VCXPoint@@@Z
?GetPixel@CGraphicsObject@@UAEEW4_channel@@VCXPoint@@@Z
?GetPixel@CMC_Image@@QAE?AVCColor@@HH@Z
?GetPixelSize@CGraphicsObject@@UAEHXZ
?GetPosition@CAnimo@@UAE?AVCXPoint@@XZ
?GetPosition@CFrame@@UAE?AVCXPoint@@XZ
?GetPosition@CGraphicsObject@@UAE?AVCXPoint@@XZ
?GetPrimaryBufferInterface@CSurface@@QAEPAUIDirectDrawSurface7@@XZ
?GetPriority@CRefreshScreen@@QAEHPAVCGraphicsObject@@@Z
?GetProgress@CSndStream@@QAEHXZ
?GetRealBpp@CGraphicsObject@@QAEHH@Z
?GetRefreshScreenInterface@CWindow@@QAEPAVCRefreshScreen@@XZ
?GetSOOnClick@CButton@@QAEPAVCSound4@@XZ
?GetSOOnClickA@CSwitchButton@@QAEPAVCSound4@@XZ
?GetSOOnClickB@CSwitchButton@@QAEPAVCSound4@@XZ
?GetSOOnMove@CButton@@QAEPAVCSound4@@XZ
?GetSOOnMove@CSwitchButton@@QAEPAVCSound4@@XZ
?GetScreenPtr@CSurface@@QAEPADXZ
?GetScreenPtr@CWindow@@QAEPADXZ
?GetScreenSize@CSurface@@QAE?AVCXSize@@XZ
?GetScreenSize@CWindow@@QAE?AVCXSize@@XZ
?GetSelLayer@CPSD@@QAEHXZ
?GetSize@CBigFile@@QAEHVCXString@@@Z
?GetSize@CCompression@@UAEHXZ
?GetSize@CFolder@@QAEHVCXString@@@Z
?GetSoundFXFullPath@CWindow@@QAE?AVCXString@@V2@@Z
?GetSoundFXPath@CWindow@@QAE?AVCXString@@XZ
?GetStandard@CButton@@QAEPAVCGraphicsObject@@XZ
?GetStandard@CSwitchButton@@QAEPAVCGraphicsObject@@XZ
?GetStartingPosition@CMC_Image@@QAE?AVCXPoint@@XZ
?GetStatus@CAnimo@@UAE?AW4_astatus@@XZ
?GetString@CConfig@@QAE?AVCXString@@V2@0@Z
?GetSurface@CWindow@@QAEPAVCSurface@@XZ
?GetTimerInterface@CWindow@@QAEPAVCXTimer@@XZ
?GetType@CError@@QAEHXZ
?GoStart@CFolder@@QAEXXZ
?GoTo@CFolder@@QAE?AVCXString@@H@Z
?GoUp@CFolder@@QAE?AVCXString@@XZ
?GreenChannel@CGraphicsObject@@QAEPADPAD@Z
?HasReachedEnd@CSndStream@@QAE_NXZ
?Height@CFontCollection@@UAEHXZ
?Height@CGraphicsObject@@UAEHXZ
?Height@CSurface@@QAEHXZ
?Height@CXRect@@QAEHXZ
?Hide@CGraphicsObject@@QAEXXZ
?HideCursor@CWindow@@QAEXXZ
?HideStandardWhileOnMove@CButton@@QAEX_N@Z
?Initialize@CSndStream@@AAEXXZ
?Invalidate@CGraphicsObject@@UAEXPAVCXRect@@@Z
?Invalidate@CGraphicsObject@@UAEXXZ
?Invalidate@CRefreshScreen@@QAEXPAVCGraphicsObject@@@Z
?Invalidate@CRefreshScreen@@UAEXPAVCXRect@@@Z
?Invalidate@CWindow@@QAEXPAVCGraphicsObject@@@Z
?Invalidate@CWindow@@QAEXPAVCXRect@@@Z
?Invalidate@CWindow@@QAEXXZ
?InvertColors@CGraphicsObject@@QAEXXZ
?IsDirectory@CFolder@@QAE_NVCXString@@@Z
?IsDraggingEnabled@CButton@@QAE_NXZ
?IsDraggingEnabled@CSwitchButton@@QAE_NXZ
?IsEmpty@CXRect@@QAE_NXZ
?IsEnabled@CControl@@UAE_NXZ
?IsEnabled@CHotSpot@@QAE_NXZ
?IsFlippingEnabled@CSurface@@QAE_NXZ
?IsInRect@CXRect@@QAE_NHH@Z
?IsInRect@CXRect@@QAE_NVCXPoint@@@Z
?IsLocked@CSwitchButton@@QAE_NXZ
?IsLooped@CSndStream@@QAE_NXZ
?IsLower@CXString@@QAE_NXZ
?IsMusicOn@CWindow@@QAE_NXZ
?IsPartOf@CXRect@@QAE_NV1@@Z
?IsPlaying@CAnimo@@UAE_NXZ
?IsPlaying@CSndStream@@QAE_NXZ
?IsPlaying@CSound4@@UAE_NXZ
?IsSoundLocked@CButton@@QAE_NXZ
?IsSoundOn@CWindow@@QAE_NXZ
?IsString@CXString@@QAE_NXZ
?IsTagged@CSwitchButton@@QAE_NXZ
?IsUpper@CXString@@QAE_NH@Z
?IsUpper@CXString@@QAE_NXZ
?Join2Channels@CGraphicsObject@@QAEPADXZ
?JoinChannels@CGraphicsObject@@QAEXXZ
?KillTimer@CWindow@@QAEXH@Z
?LTrim@CXString@@QAEAAV1@E@Z
?LastError@CError@@QAEHXZ
?LastError@CXObject@@QAEHXZ
?Left@CXString@@QAE?AV1@H@Z
?LeftBottom@CXRect@@QAE?AVCXPoint@@XZ
?LeftTop@CXRect@@QAE?AVCXPoint@@XZ
?Length@CFile@@QAEHXZ
?Load3@CAnimo@@IAEHPAVCFile@@@Z
?Load3@CImage@@UAEHPAVCFile@@@Z
?Load@CAnimo@@UAEHPAVCFile@@@Z
?Load@CAnimo@@UAEHVCXString@@@Z
?Load@CFrame@@UAEHPAVCFile@@@Z
?Load@CGraphicsObject@@UAEHPAVCFile@@@Z
?Load@CGraphicsObject@@UAEHVCXString@@@Z
?Load@CImage@@UAEHPAVCFile@@@Z
?Load@CImage@@UAEHVCXString@@_N@Z
?Load@CImageFile@@QAE?AW4_filetype@@VCXString@@@Z
?Load@CMultilineText6@@UAEHVCXString@@@Z
?Load@CPSD@@UAEHPAVCFile@@@Z
?Load@CPSD@@UAEHVCXString@@@Z
?Load@CSimpleFont6@@UAEHPAVCFile@@@Z
?Load@CSimpleFont6@@UAEHVCXString@@@Z
?Load@CSound4@@QAE_NVCXString@@@Z
?Load@CTarga@@UAEHPAVCFile@@@Z
?Load@CTarga@@UAEHVCXString@@@Z
?Load@CXBitmap@@UAEHPAVCFile@@@Z
?Load@CXBitmap@@UAEHVCXString@@@Z
?LoadHeader@CFrame@@QAEHPAVCFile@@H@Z
?LoadHeaderNew2@CFrame@@QAEXPAVCFile@@@Z
?LoadHeaderNew@CFrame@@QAEXPAVCFile@@@Z
?LoadNew@CAnimo@@UAEHPAVCFile@@@Z
?LoadNew@CFrame@@QAEXPAVCFile@@@Z
?Lock@CSurface@@QAEXXZ
?Lock@CSwitchButton@@QAEX_N@Z
?LockCursor@CWindow@@QAEXXZ
?LockSound@CButton@@QAEX_N@Z
?Lower@CXString@@QAEAAV1@XZ
?Mid@CXString@@QAE?AV1@HH@Z
?Move@CAnimo@@UAEXHH@Z
?Move@CAnimo@@UAEXVCXPoint@@@Z
?Move@CButton@@QAEXHH@Z
?Move@CButton@@QAEXVCXPoint@@@Z
?Move@CFrame@@UAEXHH@Z
?Move@CFrame@@UAEXVCXPoint@@@Z
?Move@CGraphicsObject@@UAEXHH@Z
?Move@CGraphicsObject@@UAEXVCXPoint@@@Z
?Move@CMultilineText6@@UAEXHH@Z
?Move@CText6@@UAEXHH@Z
?MoveProgress@CSndStream@@QAEXH@Z
?MusicOn@CWindow@@QAEX_N@Z
?Mute@CSound4@@UAEXXZ
?Next@CAnimo@@UAEHXZ
?OnActivateApp@CWindow@@UAEH_N@Z
?OnChar@CHotSpot@@SAHHH@Z
?OnChar@CHotSpot@@UAEHHHPAX@Z
?OnChar@CWindow@@QAEHHH@Z
?OnClick@CButton@@UAEHVCXPoint@@HPAX@Z
?OnClick@CSwitchButton@@UAEHVCXPoint@@H_NH@Z
?OnCreate@CWindow@@UAEHXZ
?OnDestroy@CWindow@@UAEHXZ
?OnDrag@CHotSpot@@UAEHVCXPoint@@HPAX@Z
?OnExit@CApplication@@UAE_NXZ
?OnExit@CWindow@@UAE_NXZ
?OnFocusOff@CHotSpot@@UAEHVCXPoint@@HPAX@Z
?OnFocusOff@CSwitchButton@@UAEHVCXPoint@@HH@Z
?OnFocusOn@CHotSpot@@UAEHVCXPoint@@HPAX@Z
?OnFocusOn@CSwitchButton@@UAEHVCXPoint@@HH@Z
?OnInitialUpdate@CWindow@@UAEHXZ
?OnKeyDown@CApplication@@UAEHHH@Z
?OnKeyDown@CHotSpot@@SAHHH@Z
?OnKeyDown@CHotSpot@@UAEHHHPAX@Z
?OnKeyDown@CWindow@@QAEHHH@Z
?OnKeyTyped@CHotSpot@@UAEHHPAX@Z
?OnKeyUp@CHotSpot@@SAHHH@Z
?OnKeyUp@CHotSpot@@UAEHHHPAX@Z
?OnKeyUp@CWindow@@QAEHHH@Z
?OnLButtonDblClk@CHotSpot@@SAHPAVCXVector@@VCXPoint@@H_N@Z
?OnLButtonDblClk@CHotSpot@@UAEHVCXPoint@@HPAX@Z
?OnLButtonDblClk@CWindow@@QAEHVCXPoint@@H@Z
?OnLButtonDown@CHotSpot@@SAHPAVCXVector@@VCXPoint@@H_N@Z
?OnLButtonDown@CHotSpot@@UAEHVCXPoint@@HPAX@Z
?OnLButtonDown@CWindow@@QAEHVCXPoint@@H@Z
?OnLButtonUp@CHotSpot@@SAHPAVCXVector@@VCXPoint@@H_N@Z
?OnLButtonUp@CHotSpot@@UAEHVCXPoint@@HPAX@Z
?OnLButtonUp@CWindow@@QAEHVCXPoint@@H@Z
?OnMButtonDown@CHotSpot@@SAHPAVCXVector@@VCXPoint@@H_N@Z
?OnMButtonDown@CHotSpot@@UAEHVCXPoint@@HPAX@Z
?OnMButtonDown@CWindow@@QAEHVCXPoint@@H@Z
?OnMButtonUp@CHotSpot@@SAHPAVCXVector@@VCXPoint@@H_N@Z
?OnMButtonUp@CHotSpot@@UAEHVCXPoint@@HPAX@Z
?OnMButtonUp@CWindow@@QAEHVCXPoint@@H@Z
?OnMouseEvent@CHotSpot@@SAHW4_event@@VCXPoint@@H@Z
?OnMouseMove@CHotSpot@@SAHPAVCXVector@@VCXPoint@@H_N@Z
?OnMouseMove@CHotSpot@@UAEHVCXPoint@@HPAX@Z
?OnMouseMove@CWindow@@QAEHVCXPoint@@H@Z
?OnMove@CButton@@UAEHVCXPoint@@HPAX@Z
?OnMove@CWindow@@UAEHHH@Z
?OnRButtonDown@CHotSpot@@SAHPAVCXVector@@VCXPoint@@H_N@Z
?OnRButtonDown@CHotSpot@@UAEHVCXPoint@@HPAX@Z
?OnRButtonDown@CWindow@@QAEHVCXPoint@@H@Z
?OnRButtonUp@CHotSpot@@SAHPAVCXVector@@VCXPoint@@H_N@Z
?OnRButtonUp@CHotSpot@@UAEHVCXPoint@@HPAX@Z
?OnRButtonUp@CWindow@@QAEHVCXPoint@@H@Z
?OnTimer@CWindow@@UAEHH@Z
?OnWAVFinished@CSound4@@UAEXXZ
?OnWindowCommand@@YAXPAVCWindow@@PAUHINSTANCE__@@H@Z
?OnWindowCommand@CApplication@@UAEXH@Z
?Open@CFile@@QAEHPAVCWindow@@VCXString@@H@Z
?Open@CSndStream@@QAE_NVCXString@@@Z
?Open@CStreamedWAV@@QAE_NPAVCFile@@@Z
?Open@CStreamedWAV@@QAE_NVCXString@@@Z
?Pause@CAnimo@@UAEXXZ
?Pause@CSndStream@@QAEXXZ
?Play@CAnimo@@UAEXVCXString@@HH@Z
?Play@CAnimo@@UAEXW4_animoevent@@HH@Z
?Play@CAnimo@@UAEXXZ
?Play@CSndStream@@QAEX_N@Z
?Play@CSound4@@UAEXXZ
?Play@CSound4@@UAEX_N@Z
?PlaySoundFX@CAnimo@@QAEXHH@Z
?PrepareFloodFill@CGraphicsObject@@QAE?AVCXRect@@VCXPoint@@VCColor@@PADPAU_floodfill@@@Z
?Prev@CAnimo@@UAEHXZ
?PutInt@CConfig@@QAEXVCXString@@0H@Z
?PutString@CConfig@@QAEXVCXString@@00@Z
?QuitOnError@CWindow@@QAEXPAVCXObject@@VCXString@@@Z
?RTrim@CXString@@QAEAAV1@E@Z
?RandomFramesNumber@CAnimo@@QAEAAFXZ
?Read@CFile@@QAEHPAXH@Z
?Read@CStreamedWAV@@QAEHHPAE@Z
?ReadChunk@CAnimo@@UAEXPAVCFile@@W4_chunk@@@Z
?RedChannel@CGraphicsObject@@QAEPADPAD@Z
?Redraw@CAnimo6@@UAEXXZ
?Redraw@CAnimo@@UAEXXZ
?Redraw@CBackgroundManager@CRefreshScreen@@QAEXPAVCDirectDrawSurface@@PAVCRefreshRegion@@@Z
?Redraw@CCanvas@@UAEXXZ
?Redraw@CDirectDrawSurface@@UAEXXZ
?Redraw@CGraphicsObject@@UAEXXZ
?Redraw@CMultilineText6@@UAEXXZ
?Redraw@CPattern@@UAEXXZ
?Redraw@CRefreshScreen@@QAE_NPAVCDirectDrawSurface@@PAVCSurface@@PA_N@Z
?Redraw@CRefreshScreen@@UAEXXZ
?Redraw@CSimpleFont6@@UAEXXZ
?Redraw@CText6@@UAEXXZ
?Redraw@CWindow@@UAEHXZ
?Release@CDirectDrawSurface@@QAEXXZ
?ReleaseGraphics@CGraphicsObject@@SAXXZ
?RemoveAllEvents@CAnimo@@QAEXXZ
?RemoveAllFrames@CAnimo@@QAEXH@Z
?RemoveEvent@CAnimo@@QAEXH@Z
?RemoveFrame@CAnimo@@QAEXHH@Z
?RemoveFrame@CAnimo@@QAE_NH@Z
?Replace@CXString@@QAEAAV1@DD@Z
?ResetWavePlayer@CSndStream@@AAEXXZ
?Resume@CAnimo@@UAEXXZ
?Resume@CSndStream@@QAEXXZ
?Right@CXString@@QAE?AV1@H@Z
?RightBottom@CXRect@@QAE?AVCXPoint@@XZ
?RightTop@CXRect@@QAE?AVCXPoint@@XZ
?SFX_FOLDER@CFolder@@2VCXString@@A
?SWClose@CSndStream@@QAEXXZ
?SWRead@CSndStream@@QAEHHPAE@Z
?SWStartRead@CSndStream@@QAEXXZ
?Save3@CAnimo@@IAEHPAVCFile@@W4_compression@@@Z
?Save@CAnimo@@UAEXPAVCFile@@W4_compression@@@Z
?Save@CAnimo@@UAEXVCXString@@W4_compression@@@Z
?Save@CFrame@@UAEXPAVCFile@@W4_compression@@@Z
?Save@CGraphicsObject@@UAEXPAVCFile@@W4_compression@@@Z
?Save@CGraphicsObject@@UAEXVCXString@@W4_compression@@@Z
?Save@CImageFile@@QAE?AW4_filetype@@PAVCGraphicsObject@@VCXString@@W4_compression@@@Z
?Save@CRefreshScreen@@UAEXVCXString@@W4_compression@@@Z
?Save@CTarga@@UAEXPAVCFile@@W4_compression@@@Z
?Save@CTarga@@UAEXVCXString@@W4_compression@@@Z
?Save@CXBitmap@@UAEXPAVCFile@@W4_compression@@@Z
?Save@CXBitmap@@UAEXVCXString@@W4_compression@@@Z
?SaveHeader3@CFrame@@QAEXPAVCFile@@W4_compression@@@Z
?SaveHeader@CFrame@@QAEXPAVCFile@@H@Z
?SaveHeaderNew@CFrame@@QAEXPAVCFile@@W4_compression@@@Z
?SaveNew@CFrame@@QAEXPAVCFile@@W4_compression@@@Z
?Scale2x@CGraphicsObject@@QAEXXZ
?Scale@CGraphicsObject@@QAEXNN@Z
?Seek@CAnimo@@UAEXH@Z
?Seek@CBigFile@@QAEHHH@Z
?Seek@CBigFile@@QAEHVCXString@@@Z
?Seek@CFile@@QAEHHH@Z
?SelectLayer@CPSD@@QAEXH@Z
?SelectLayer@CPSD@@QAEXVCXString@@@Z
?Separator@CXArchive@@QAEXE@Z
?Set@CAnimo@@QAEXH_N@Z
?Set@CButton@@QAE_NPAVCGraphicsObject@@PAX_N@Z
?Set@CColor@@QAEXEEE@Z
?Set@CColor@@QAEXEEEE@Z
?Set@CColor@@QAEXFW4_colormodel@@@Z
?Set@CHotSpot@@QAEHHHH@Z
?Set@CHotSpot@@QAEHPAVCGraphicsObject@@W4_event@@H@Z
?Set@CXRect@@QAEXHHHH@Z
?Set@CXRect@@QAEXVCXPoint@@0@Z
?Set@CXRect@@QAEXVCXPoint@@VCXSize@@@Z
?SetActiveCursor@CWindow@@QAEXPAUHICON__@@@Z
?SetActiveRect@CButton@@QAE_NVCXRect@@@Z
?SetActiveRect@CHotSpot@@QAEHVCXRect@@W4_event@@H@Z
?SetActiveRect@CSwitchButton@@QAEXVCXRect@@@Z
?SetAnimoFlags@CAnimo@@QAEXW4_animoflags@@@Z
?SetApplicationInterface@CWindow@@QAEXPAVCApplication@@@Z
?SetAttachedChangeFilter@CAnimo@@QAEXEPAX@Z
?SetAttachedFilter@CAnimo@@QAEXEPAX@Z
?SetAutoClip@CGraphicsObject@@QAEX_N@Z
?SetBackground@CBackgroundManager@CRefreshScreen@@QAEXPAVCColor@@@Z
?SetBackground@CBackgroundManager@CRefreshScreen@@QAEXPAVCGraphicsObject@@@Z
?SetBackground@CRefreshScreen@@QAEXPAVCColor@@@Z
?SetBackground@CRefreshScreen@@QAEXPAVCGraphicsObject@@@Z
?SetBackground@CRefreshScreen@@QAEXVCXString@@@Z
?SetBackground@CWindow@@QAEXPAVCColor@@@Z
?SetBackground@CWindow@@QAEXPAVCGraphicsObject@@@Z
?SetBackground@CWindow@@QAEXVCXString@@@Z
?SetBpp@CGraphicsObject@@QAEXH@Z
?SetBytesRemaining@CSndStream@@QAEXH@Z
?SetCanvas@CGraphicsObject@@QAEXPAVCRefreshScreen@@@Z
?SetClippingRect@CGraphicsObject@@QAEXHHHH@Z
?SetClippingRect@CGraphicsObject@@UAEXVCXRect@@@Z
?SetClippingRect@CSimpleFont6@@UAEXDVCXRect@@@Z
?SetCompression@CGraphicsObject@@QAEXW4_compression@@@Z
?SetCurrentEvent@CAnimo@@QAEXH@Z
?SetCursor@CWindow@@QAEXPAUHICON__@@@Z
?SetDataPtr@CGraphicsObject@@QAEXPAD@Z
?SetDeleteFlags@CButton@@QAEX_N0@Z
?SetDeleteFlags@CSwitchButton@@QAEX_N0@Z
?SetDestiny@CGraphicsObject@@QAEXPAV1@@Z
?SetDirectDrawSurfaceInterface@CDirectDrawSurface@@QAEXPAUIDirectDrawSurface7@@@Z
?SetDirection@CAnimo@@QAEXW4_direction@@@Z
?SetDisplayMode@CWindow@@QAEHHHH@Z
?SetDisplayMode@CWindow@@QAEHVCXSize@@H@Z
?SetDonePlaying@CSndStream@@QAEX_N@Z
?SetDragging@CButton@@QAEXPAVCGraphicsObject@@@Z
?SetEventFrame@CAnimo@@QAEHHVCXString@@@Z
?SetEventFrame@CAnimo@@QAEXHH@Z
?SetEventFrame@CAnimo@@QAEXVCXString@@H@Z
?SetExtension@CPath@@QAE?AVCXString@@V2@@Z
?SetFPS@CAnimo@@QAEXH@Z
?SetFileName@CSound4@@QAEXVCXString@@@Z
?SetFlags@CControl@@QAEXH@Z
?SetFlags@CGraphicsObject@@QAEXH@Z
?SetFlags@CRefreshScreen@@QAE_NPAVCGraphicsObject@@H@Z
?SetFoundEnd@CSndStream@@QAEX_N@Z
?SetFrame@CAnimo@@QAEXH@Z
?SetGlobalPosition@CAnimo@@UAEXHH@Z
?SetGlobalPosition@CAnimo@@UAEXVCXPoint@@@Z
?SetGlobalPosition@CPlayable@@UAEXHH@Z
?SetGlobalPosition@CPlayable@@UAEXVCXPoint@@@Z
?SetID@CButton@@UAEXH@Z
?SetID@CControl@@UAEXH@Z
?SetID@CHotSpot@@QAEXH@Z
?SetID@CSwitchButton@@UAEXH@Z
?SetMainCursor@CWindow@@QAEXXZ
?SetOnClick@CButton@@QAE_NPAVCGraphicsObject@@PAVCSound4@@@Z
?SetOnClickA@CSwitchButton@@QAEXPAVCGraphicsObject@@PAVCSound4@@@Z
?SetOnClickB@CSwitchButton@@QAEXPAVCGraphicsObject@@PAVCSound4@@@Z
?SetOnMove@CButton@@QAE_NPAVCGraphicsObject@@PAVCSound4@@@Z
?SetOnMove@CSwitchButton@@QAEXPAVCGraphicsObject@@PAVCSound4@@@Z
?SetOpacity@CFontCollection@@UAEXE@Z
?SetOpacity@CGraphicsObject@@UAEXE@Z
?SetParent@CHotSpot@@QAEXPAVCXObject@@@Z
?SetPitch@CGraphicsObject@@QAEXH@Z
?SetPixel@CGraphicsObject@@QAEXHHVCColor@@@Z
?SetPixel@CGraphicsObject@@QAEXVCXPoint@@VCColor@@@Z
?SetPlaySoundOnlyWhenSilence@CButton@@QAEX_N@Z
?SetPosOffset@CFrame@@UAEXHH@Z
?SetPosition@CAnimo@@UAEXHH@Z
?SetPosition@CAnimo@@UAEXVCXPoint@@@Z
?SetPosition@CFrame@@UAEXHH@Z
?SetPosition@CFrame@@UAEXVCXPoint@@@Z
?SetPosition@CGraphicsObject@@UAEXHH@Z
?SetPosition@CGraphicsObject@@UAEXVCXPoint@@@Z
?SetPosition@CPSD@@UAEXVCXPoint@@@Z
?SetPosition@CSound4@@QAEXH@Z
?SetPriority@CRefreshScreen@@QAEXPAVCGraphicsObject@@H@Z
?SetSound@CButton@@QAEXW4_soundtype@@PAVCSound4@@@Z
?SetSoundFXPath@CWindow@@QAEXVCXString@@@Z
?SetStartingPosition@CMC_Image@@QAEXHH@Z
?SetTimer@CWindow@@QAEXHIPAVCUnit6@@_N@Z
?SetToEmpty@CXRect@@QAEXXZ
?SetViewport@CGraphicsObject@@QAEXHHHH@Z
?SetViewport@CGraphicsObject@@QAEXVCXRect@@@Z
?SetWaitCursor@CWindow@@QAEXPAUHICON__@@@Z
?Show@CGraphicsObject@@QAEXXZ
?ShowCursor@CWindow@@QAEXXZ
?ShowError@CWindow@@QAEXXZ
?ShowFPS@CSurface@@QAEXVCXPoint@@PAVCDirectDrawSurface@@@Z
?Size@CGraphicsObject@@UAE?AVCXSize@@XZ
?SoundOn@CWindow@@QAEX_N@Z
?Split@CGraphicsObject@@QAEXXZ
?SplitOn2@CGraphicsObject@@QAEXPADH@Z
?StartMusic@CWindow@@QAEXVCXString@@_N@Z
?StartRead@CStreamedWAV@@QAEXXZ
?Stop@CAnimo@@UAEXXZ
?Stop@CSndStream@@QAEXXZ
?Stop@CSound4@@UAEXXZ
?StopMusic@CWindow@@QAEXXZ
?StopNoNotify@CAnimo@@UAEXXZ
?StreamBufferSetup@CSndStream@@AAE_NVCXString@@@Z
?Sum@CXRect@@QAEAAV1@V1@@Z
?Sum@CXSize@@QAEHXZ
?Tag@CSwitchButton@@QAEX_N@Z
?Tell@CBigFile@@QAEHXZ
?Tell@CFile@@QAEHXZ
?TestHit@CHotSpot@@QAE_NVCXPoint@@@Z
?Tick@CWindow@@QAEHXZ
?ToGrayScale@CGraphicsObject@@QAEXXZ
?TopLeft@CXRect@@QAE?AVCXPoint@@XZ
?Type@CError@@QAEXW4_errtype@@@Z
?UnLock@CSurface@@QAEXXZ
?UnLockCursor@CWindow@@QAEXXZ
?Update@CBigFile@@QAE_NVCXString@@@Z
?UpdateFile@CBigFile@@QAE_NVCXString@@0@Z
?UpdateFile@CBigFile@@QAE_NVCXString@@@Z
?UpdateSoundFX@CAnimo@@QAEXHHPAVCSound4@@@Z
?Upper@CXString@@QAEAAV1@XZ
?Visible@CGraphicsObject@@UAEX_N@Z
?Visible@CRefreshScreen@@UAEX_N@Z
?WAVS_FOLDER@CFolder@@2VCXString@@A
?Width@CGraphicsObject@@UAEHXZ
?Width@CSurface@@QAEHXZ
?Width@CXRect@@QAEHXZ
?Write@CFile@@QAEHPAXH@Z
?__compress@CLZWCompression@@AAEKPAE0K@Z
?__compress@CRLECompression@@SAPADPADHAAH@Z
?__compresschar@CRLECompression@@SAPADPADHAAH@Z
?__convert_bpp@CGraphicsObject@@SA_NPAPAD0VCXSize@@HHPAPAU_palette@@_N@Z
?__copy@CGraphicsObject@@SA_NPAU_canvas@@0@Z
?__copy_alpha15@CGraphicsObject@@CA_NPAU_canvas@@0@Z
?__copy_alpha16@CGraphicsObject@@CA_NPAU_canvas@@0@Z
?__copy_alpha@CGraphicsObject@@SA_NPAU_canvas@@0@Z
?__copy_alpha_as_mask@CGraphicsObject@@CA_NPAU_canvas@@0@Z
?__copy_alpha_blend15@CGraphicsObject@@CA_NPAU_canvas@@0E@Z
?__copy_alpha_blend16@CGraphicsObject@@CA_NPAU_canvas@@0E@Z
?__copy_blend15@CGraphicsObject@@CA_NPAU_canvas@@0E@Z
?__copy_blend16@CGraphicsObject@@CA_NPAU_canvas@@0E@Z
?__copy_blend@CGraphicsObject@@SA_NPAU_canvas@@0E@Z
?__copy_bpp15_16@CGraphicsObject@@CA_NPAU_canvas@@0@Z
?__decompress@CLZWCompression@@AAEXPAD0J@Z
?__decompress@CRLECompression@@SAPADPADHH@Z
?__decompresschar@CRLECompression@@SAPADPADHH@Z
?__done_mul_array@CGraphicsObject@@SAXXZ
?__fill_event_info@CAnimo@@IAEXPAU_annEventInfo3@@@Z
?__fill_frame_info@CAnimo@@IAEXPAU_anmFrameInfo3@@@Z
?__get_convert_code@CGraphicsObject@@CAHHH@Z
?__get_data_size@CGraphicsObject@@CAHHHH@Z
?__get_data_size@CGraphicsObject@@CAHVCXSize@@H@Z
?__get_mul_array@CGraphicsObject@@SAPAFXZ
?__get_pixel_size@CGraphicsObject@@CAHH@Z
?__get_virtualkey_code@CWindow@@SAHHH@Z
?__initialize_mul_array@CGraphicsObject@@SAXXZ
?__redraw@CRefreshScreen@@AAE_NPAVCDirectDrawSurface@@@Z
?_break@CMC_Behaviour@@UAEXXZ
?_break@CMC_Behaviour_Runner@@AAEPAVCMC_Variable@@PAVCMC_Object@@PAVCMC_ObjectsContainer@@PAVCXVector@@@Z
?_catch@CRefreshScreen@@QAEPAVCDirectDrawSurface@@XZ
?_convert15to16@CGraphicsObject@@SAPADPAPADVCXSize@@PAD@Z
?_convert16to15@CGraphicsObject@@SAPADPAPADVCXSize@@PAD@Z
?_delete@CMC_Class_Runner@@AAEPAVCMC_Variable@@PAVCMC_Object@@PAVCMC_ObjectsContainer@@PAVCXVector@@@Z
?_eof@CTextCoder@@UAE_NXZ
?_goto@CMC_Application_Runner@@AAEPAVCMC_Variable@@PAVCMC_Object@@PAVCMC_ObjectsContainer@@PAVCXVector@@@Z
?_goto@CMC_Episode_Runner@@AAEPAVCMC_Variable@@PAVCMC_Object@@PAVCMC_ObjectsContainer@@PAVCXVector@@@Z
?_goto@CMC_Scene@@UAEXPAV1@0@Z
?_goto@CMC_Scene@@UAEXVCXString@@@Z
?_init24bitdibsection@CPrinter@@AAEPAUHBITMAP__@@KKAAUtagBITMAP@@AAPAX@Z
?_max@CMC_Array_Runner@@AAEPAVCMC_Variable@@PAVCMC_Object@@PAVCMC_ObjectsContainer@@PAVCXVector@@@Z
?_min@CMC_Array_Runner@@AAEPAVCMC_Variable@@PAVCMC_Object@@PAVCMC_ObjectsContainer@@PAVCXVector@@@Z
?_new@CMC_Class_Runner@@AAEPAVCMC_Variable@@PAVCMC_Object@@PAVCMC_ObjectsContainer@@PAVCXVector@@@Z
?_release@CButton@@SAXPAV1@@Z
?_release@CRefreshScreen@@QAEXXZ
?_switch@CMC_Variable_Runner@@AAEPAVCMC_Variable@@PAVCMC_Object@@PAVCMC_ObjectsContainer@@PAVCXVector@@@Z
?_switch@CPattern@@QAEXHHHH@Z
?abs@CMC_Variable_Runner@@AAEPAVCMC_Variable@@PAVCMC_Object@@PAVCMC_ObjectsContainer@@PAVCXVector@@@Z
?absolute@@YAHH@Z
?accent@CMC_Button_Runner@@AAEPAVCMC_Variable@@PAVCMC_Object@@PAVCMC_ObjectsContainer@@PAVCXVector@@@Z
?accure@CSequencedPlayable@@QAEXPAVCPlayable@@@Z
?acquire@CDXMouse@@QAEH_N@Z
?activate@CEditBox6@@QAEX_N@Z
?activateEditBox@CUnit6@@UAEXPAVCEditBox6@@@Z
?active@CMC_EditBox_Runner@@AAEPAVCMC_Variable@@PAVCMC_Object@@PAVCMC_ObjectsContainer@@PAVCXVector@@@Z
?add@CAnimationManager@@QAEXPAVCPlayable@@PAVCRefreshScreen@@@Z
?add@CCanvas@@UAEXPAVCGraphicsObject@@H@Z
?add@CHotSpot@@SA_NPAV1@@Z
?add@CMC_Array@@UAEXPAVCMC_Variable@@@Z
?add@CMC_Array_Runner@@AAEPAVCMC_Variable@@PAVCMC_Object@@PAVCMC_ObjectsContainer@@PAVCXVector@@@Z
?add@CMC_Canvas@@UAEXVCXString@@H@Z
?add@CMC_CanvasObserver_Runner@@AAEPAVCMC_Variable@@PAVCMC_Object@@PAVCMC_ObjectsContainer@@PAVCXVector@@@Z
?add@CMC_Canvas_Runner@@AAEPAVCMC_Variable@@PAVCMC_Object@@PAVCMC_ObjectsContainer@@PAVCXVector@@@Z
?add@CMC_Database@@QAEXPAVCMC_Structure@@@Z
?add@CMC_Database_Runner@@AAEPAVCMC_Variable@@PAVCMC_Object@@PAVCMC_ObjectsContainer@@PAVCXVector@@@Z
?add@CMC_Dialog_Runner@@AAEPAVCMC_Variable@@PAVCMC_Object@@PAVCMC_ObjectsContainer@@PAVCXVector@@@Z
?add@CMC_Groupped@@QAEXPAVCMC_Object@@@Z
?add@CMC_Groupped_Runner@@AAEPAVCMC_Variable@@PAVCMC_Object@@PAVCMC_ObjectsContainer@@PAVCXVector@@@Z
?add@CMC_Pattern_Runner@@AAEPAVCMC_Variable@@PAVCMC_Object@@PAVCMC_ObjectsContainer@@PAVCXVector@@@Z
?add@CMC_Scroll@@QAEXPAVCGraphicsObject@@@Z
?add@CMC_Scroll_Runner@@AAEPAVCMC_Variable@@PAVCMC_Object@@PAVCMC_ObjectsContainer@@PAVCXVector@@@Z
?add@CMC_Variable_Runner@@AAEPAVCMC_Variable@@PAVCMC_Object@@PAVCMC_ObjectsContainer@@PAVCXVector@@@Z
?add@CPattern@@UAEXVCXString@@HHHPAVCGraphicsObject@@H0@Z
?add@CRandomPlayable@@UAEXPAVCPlayable@@NHVCXString@@@Z
?add@CResourcesManager@@QAEXPAV1@@Z
?add@CResourcesManager@@QAEXPAVCFileResolver@@@Z
?add@CSortedVector@@UAEXPAVCXObject@@@Z
?add@CSoundManager@@QAEXPAVCSound4@@_N@Z
?add@CStringArray@@UAEXVCXString@@@Z
?add@CTreeSequenceElements@@QAEXVCXString@@0@Z
?add@CTreeSequenceElements@@QAEXVCXString@@@Z
?add@CValidationQuene@@QAEXPAVCGraphicsObject@@HH@Z
?add@CXArray@@UAEXPAV1@@Z
?add@CXArray@@UAEXPAX@Z
?add@CXDialog@@UAEXPAVCButton@@@Z
?add@CXDialog@@UAEXPAVCGraphicsObject@@@Z
?add@CXTimer@@QAEXHIPAVCTimerNotificator@@@Z
?add@CXTimer@@QAEXHIPAVCUnit6@@_N@Z
?add@CXTimer@@QAEXHIPAVCWindow@@@Z
?add@CXVector@@UAEXPAV1@@Z
?add@CXVector@@UAEXPAVCXObject@@@Z
?addBehaviour@CMC_Object@@UAEXVCXString@@PAVCMC_Behaviour@@PAVCXArray@@@Z
?addBehaviour@CMC_Runner@@IAEPAVCMC_Variable@@PAVCMC_Object@@PAVCMC_ObjectsContainer@@PAVCXVector@@@Z
?addChild@CMElement@@QAEXPAV1@@Z
?addChild@CPlayable@@UAEXPAV1@@Z
?addChild@CSequencedPlayable@@UAEXPAVCPlayable@@@Z
?addClones@CMC_Array@@UAEXVCXString@@HH@Z
?addClones@CMC_Array_Runner@@AAEPAVCMC_Variable@@PAVCMC_Object@@PAVCMC_ObjectsContainer@@PAVCXVector@@@Z
?addClones@CMC_Groupped@@QAEXVCXString@@HH@Z
?addClones@CMC_Groupped_Runner@@AAEPAVCMC_Variable@@PAVCMC_Object@@PAVCMC_ObjectsContainer@@PAVCXVector@@@Z
?addCode@CText6@@IAEPAVCSimpleFont6@@HVCXString@@PAV2@@Z
?addEditBox@CMultilineText6@@AAEXVCXRect@@PAVCTextFormatCode@@@Z
?addEditBox@CUnit6@@UAEPAVCEditBox6@@PAVCSimpleFont6@@VCXRect@@HVCXString@@@Z
?addEvent@CPlayable@@QAEXVCXString@@0@Z
?addFont@CFontCollection@@QAEXPAVCSimpleFont6@@@Z
?addInvalidateObserver@CGraphicsObject@@UAEXPAVCInvalidateObserver@@@Z
?addMonitoredObject@CCollisionInspector@@QAEXPAVCGraphicsObject@@_N@Z
?addNotifier@CCollisionInspector@@QAEXPAVCCollisionObserver@@@Z
?addNotifier@CControl@@UAEXPAVCControlNotifier@@@Z
?addNotifier@CEditBox6@@QAEXPAVCEditBoxNotifier@@@Z
?addNotifier@CNetworkClient@@QAEXPAVCNetClientListener@@@Z
?addNotifier@CNetworkServer@@QAEXPAVCNetServerListener@@@Z
?addNotifier@CPlayable@@QAEXPAVCPlayableObserver@@@Z
?addNotifier@CRandomPlayable@@QAEXPAVCRandomPlayableNotifier@@@Z
?addNotifier@CRefreshScreen@@QAEXPAVCCanvasObserver@@@Z
?addObject@CGraphicsObject@@QAEXPAV1@H@Z
?addObject@CMC_Class@@UAEXPAVCMC_Object@@@Z
?addObject@CMC_ObjectsContainer@@UAEXPAVCMC_Object@@@Z
?addParent@CPlayable@@QAEXXZ
?addProperty@CMElement@@QAEXVCXString@@0@Z
?addProperty@CMElement@@QAEXVCXString@@@Z
?addRandomPlayable@CUnit6@@UAEXPAVCPlayable@@NHVCXString@@@Z
?addRect@CXRect@@QAEXPAVCXArray@@HHHH@Z
?addSeq@CMC_Animo@@QAEXPAVCPlayable@@@Z
?addSequenceEvent@CTreeSequenceElements@@QAEXVCXString@@00@Z
?addTempObject@CMC_Behaviour@@UAEXPAVCMC_Object@@@Z
?addText@CMC_EditBox_Runner@@AAEPAVCMC_Variable@@PAVCMC_Object@@PAVCMC_ObjectsContainer@@PAVCXVector@@@Z
?addToArray@CMC_Runner@@IAEPAVCMC_Variable@@PAVCMC_Object@@PAVCMC_ObjectsContainer@@PAVCXVector@@@Z
?addToGroup@CMC_Runner@@IAEPAVCMC_Variable@@PAVCMC_Object@@PAVCMC_ObjectsContainer@@PAVCXVector@@@Z
?addToTrash@CMC_Behaviour@@SAXPAVCMC_Object@@@Z
?addat@CMC_Array@@UAEXHPAVCMC_Variable@@@Z
?addat@CMC_Array_Runner@@AAEPAVCMC_Variable@@PAVCMC_Object@@PAVCMC_ObjectsContainer@@PAVCXVector@@@Z
?allocBool@CMC_VariableFactory@@SAPAVCMC_Bool@@XZ
?allocDouble@CMC_VariableFactory@@SAPAVCMC_Double@@XZ
?allocInteger@CMC_VariableFactory@@SAPAVCMC_Integer@@XZ
?allocString@CMC_VariableFactory@@SAPAVCMC_String@@XZ
?alwaysOnTop@CAnimo@@UAEXXZ
?alwaysOnTop@CPlayable@@UAEXXZ
?alwaysOnTop@CSequencedPlayable@@UAEXXZ
?alwaysOnTop@CSpeakingAnimation@@UAEXXZ
?and@CMC_Variable_Runner@@AAEPAVCMC_Variable@@PAVCMC_Object@@PAVCMC_ObjectsContainer@@PAVCXVector@@@Z
?apply@CSpeakingAnimation@@QAEXPAVCPlayable@@@Z
?apply@CSpeakingAnimation@@QAEXVCXString@@@Z
?applyToRestore@CDirectDrawSurface@@QAEXPAVCGraphicsObject@@@Z
?arcTan@CMC_Variable_Runner@@AAEPAVCMC_Variable@@PAVCMC_Object@@PAVCMC_ObjectsContainer@@PAVCXVector@@@Z
?arcTanEX@CMC_Variable_Runner@@AAEPAVCMC_Variable@@PAVCMC_Object@@PAVCMC_ObjectsContainer@@PAVCXVector@@@Z
?at@CDataBuffer2Dim@@UAEXHH@Z
?at@CXArray@@QAEPAXH@Z
?at@CXVector@@QAEPAVCXObject@@H@Z
?back@CFolder@@QAEXXZ
?back@CMC_Episode@@QAEXXZ
?back@CMC_Episode_Runner@@AAEPAVCMC_Variable@@PAVCMC_Object@@PAVCMC_ObjectsContainer@@PAVCXVector@@@Z
?backup@CDataBuffer@@UAEXXZ
?boolPtr@CMC_VariableFactory@@0HA
?breakMth@CMC_BasicCondition_Runner@@AAEPAVCMC_Variable@@PAVCMC_Object@@PAVCMC_ObjectsContainer@@PAVCXVector@@_N@Z
?bringBackCompressed@CGraphicsObject@@UAEXXZ
?bringBackDraggingObjectPosition@CUnit6@@QAEXVCXPoint@@@Z
?buff@?1??fillParams@CMC_Behaviour_Entry@@CAPADVCXString@@PAVCXArray@@@Z@4PADA
?calculate@CMC_Bool@@UAEPAVCMC_Variable@@PAV2@H@Z
?calculate@CMC_Double@@UAEPAVCMC_Variable@@PAV2@H@Z
?calculate@CMC_Expression@@UAEPAVCMC_Variable@@PAV2@H@Z
?calculate@CMC_Expression@@UAEXXZ
?calculate@CMC_Integer@@UAEPAVCMC_Variable@@PAV2@H@Z
?calculate@CMC_String@@UAEPAVCMC_Variable@@PAV2@H@Z
?calculate@CMC_Structure@@UAEPAVCMC_Variable@@PAV2@H@Z
?capture@CCanvas@@UAEXXZ
?capture@CMC_Canvas@@UAEX_N@Z
?capture@CMC_Canvas_Runner@@AAEPAVCMC_Variable@@PAVCMC_Object@@PAVCMC_ObjectsContainer@@PAVCXVector@@@Z
?chDir@CFile@@SAHVCXString@@@Z
?changeAt@CMC_Array@@UAEXHPAVCMC_Variable@@@Z
?changeAt@CMC_Array_Runner@@AAEPAVCMC_Variable@@PAVCMC_Object@@PAVCMC_ObjectsContainer@@PAVCXVector@@@Z
?chdir@CBigFile@@AAEHVCXString@@@Z
?check@CMC_BasicCondition_Runner@@AAEPAVCMC_Variable@@PAVCMC_Object@@PAVCMC_ObjectsContainer@@PAVCXVector@@@Z
?checkAlphaCollision@CCollisionInspector@@EAE_NPAVCGraphicsObject@@VCXRect@@01@Z
?checkCode@CText6@@KA_NVCXString@@@Z
?checkScrollMode@CBackgroundManager@CRefreshScreen@@AAEXXZ
?checkSize@CHashtable@@AAEXXZ
?clamp@CMC_Variable_Runner@@AAEPAVCMC_Variable@@PAVCMC_Object@@PAVCMC_ObjectsContainer@@PAVCXVector@@@Z
?clampAt@CMC_Array_Runner@@AAEPAVCMC_Variable@@PAVCMC_Object@@PAVCMC_ObjectsContainer@@PAVCXVector@@@Z
?clear@CCanvas@@UAEX_N@Z
?clear@CHashtable@@QAEXXZ
?clear@CMC_Bool@@UAEXXZ
?clear@CMC_Canvas_Runner@@AAEPAVCMC_Variable@@PAVCMC_Object@@PAVCMC_ObjectsContainer@@PAVCXVector@@@Z
?clear@CMC_Double@@UAEXXZ
?clear@CMC_Expression@@UAEXXZ
?clear@CMC_Integer@@UAEXXZ
?clear@CMC_String@@UAEXXZ
?clear@CMC_Structure@@UAEXXZ
?clear@CMC_Variable_Runner@@AAEPAVCMC_Variable@@PAVCMC_Object@@PAVCMC_ObjectsContainer@@PAVCXVector@@@Z
?clearClipping@CMC_Animo_Runner@@AAEPAVCMC_Variable@@PAVCMC_Object@@PAVCMC_ObjectsContainer@@PAVCXVector@@@Z
?clearClipping@CMC_Image_Runner@@AAEPAVCMC_Variable@@PAVCMC_Object@@PAVCMC_ObjectsContainer@@PAVCXVector@@@Z
?clearClipping@CMC_Text_Runner@@AAEPAVCMC_Variable@@PAVCMC_Object@@PAVCMC_ObjectsContainer@@PAVCXVector@@@Z
?clearClipping@CMC_VirtualGraphicsObject_Runner@@AAEPAVCMC_Variable@@PAVCMC_Object@@PAVCMC_ObjectsContainer@@PAVCXVector@@@Z
?clearLastRefreshed@CAnimo@@UAEXXZ
?clearMarks@CValidationQuene@@QAEXXZ
?clearNotifiers@CPlayable@@QAEXXZ
?clearPool@CMC_VariableFactory@@SAXXZ
?click@CMC_Mouse_Runner@@AAEPAVCMC_Variable@@PAVCMC_Object@@PAVCMC_ObjectsContainer@@PAVCXVector@@@Z
?clipRect@CMC_Mouse@@0VCXRect@@A
?clone@CAnimo6@@UAEPAVCXObject@@XZ
?clone@CButton@@UAEPAVCXObject@@XZ
?clone@CCanvas@@UAEPAVCXObject@@XZ
?clone@CDataBuffer2Dim@@UAEPAVCXObject@@XZ
?clone@CDataBuffer@@UAEPAVCXObject@@XZ
?clone@CGraphicsObject@@UAEPAVCXObject@@XZ
?clone@CHashtable@@UAEPAVCXObject@@XZ
?clone@CImage@@UAEPAVCXObject@@XZ
?clone@CMC_Animo@@UAEPAVCXObject@@XZ
?clone@CMC_Array@@UAEPAVCXObject@@XZ
?clone@CMC_Bool@@UAEPAVCXObject@@XZ
?clone@CMC_Button@@UAEPAVCXObject@@XZ
?clone@CMC_Canvas@@UAEPAVCXObject@@XZ
?clone@CMC_Double@@UAEPAVCXObject@@XZ
?clone@CMC_Expression@@UAEPAVCXObject@@XZ
?clone@CMC_Groupped@@UAEPAVCXObject@@XZ
?clone@CMC_Image@@UAEPAVCXObject@@XZ
?clone@CMC_Integer@@UAEPAVCXObject@@XZ
?clone@CMC_MultiArray@@UAEPAVCXObject@@XZ
?clone@CMC_Object@@UAEPAVCXObject@@XZ
?clone@CMC_Object@@UAEXH@Z
?clone@CMC_Object@@UAEXPAV1@@Z
?clone@CMC_Runner@@IAEPAVCMC_Variable@@PAVCMC_Object@@PAVCMC_ObjectsContainer@@PAVCXVector@@@Z
?clone@CMC_String@@UAEPAVCXObject@@XZ
?clone@CMC_Structure@@UAEPAVCXObject@@XZ
?clone@CMC_VirtualGraphicsObject@@UAEPAVCXObject@@XZ
?clone@CXArray@@UAEPAVCXObject@@XZ
?clone@CXObject@@UAEPAV1@XZ
?clone@CXPair@@UAEPAVCXObject@@XZ
?clone@CXVector@@UAEPAVCXObject@@XZ
?close@CBigFile@@AAEXXZ
?closeBigFile@CFile@@SAXXZ
?code@CTextCoder@@SAXPAVCWindow@@VCXString@@1H@Z
?codeLine@CTextCoder@@UAE?AVCXString@@XZ
?codecs@CSoundCodec@@0PAPAV1@A
?compare@CMC_Array_Runner@@AAEPAVCMC_Variable@@PAVCMC_Object@@PAVCMC_ObjectsContainer@@PAVCXVector@@@Z
?compare@CMC_Bool@@UAEHPAVCMC_Variable@@@Z
?compare@CMC_Double@@UAEHPAVCMC_Variable@@@Z
?compare@CMC_Expression@@UAEHPAVCMC_Variable@@@Z
?compare@CMC_Integer@@UAEHPAVCMC_Variable@@@Z
?compare@CMC_String@@UAEHPAVCMC_Variable@@@Z
?compare@CMC_Structure@@UAEHPAVCMC_Variable@@@Z
?compare@CMC_Variable@@UAEHPAVCXObject@@@Z
?compare@CXObject@@UAEHPAV1@@Z
?compareArr@CMC_Array@@UAE_NPAV1@@Z
?compress@CLZWCompression2@@QAEPADAAH@Z
?compress@CLZWCompression@@QAEPADAAH@Z
?connect@CMC_NetClient@@QAEXXZ
?connect@CNetworkClient@@QAEXXZ
?contains@CAnimationManager@@AAE_NPAVCMC_Groupped@@PAVCPlayable@@@Z
?contains@CHashtable@@QAE_NPAVCXObject@@@Z
?contains@CMC_Array@@UAE_NPAVCMC_Variable@@@Z
?contains@CMC_Array_Runner@@AAEPAVCMC_Variable@@PAVCMC_Object@@PAVCMC_ObjectsContainer@@PAVCXVector@@@Z
?contains@CMElements@@QAE_NVCXString@@@Z
?contains@CMProperties@@QAE_NVCXString@@@Z
?contains@CPattern@@UAE_NPAVCGraphicsObject@@@Z
?contains@CResourcesManager@@QAE_NPAVCFileResolver@@@Z
?contains@CStringArray@@UAE_NVCXString@@@Z
?contains@CTreeSequenceElements@@QAE_NVCXString@@@Z
?contains@CXArray@@UAE_NPAX@Z
?contains@CXVector@@UAE_NPAVCXObject@@@Z
?convTab@CText6@@KA?AVCXString@@V2@@Z
?convert@CMC_Bool@@UAEPAVCMC_Variable@@H@Z
?convert@CMC_Double@@UAEPAVCMC_Variable@@H@Z
?convert@CMC_Expression@@UAEPAVCMC_Variable@@H@Z
?convert@CMC_Integer@@UAEPAVCMC_Variable@@H@Z
?convert@CMC_String@@UAEPAVCMC_Variable@@H@Z
?convert@CMC_Structure@@UAEPAVCMC_Variable@@H@Z
?copy@CMemStorage@@QAEXPAX@Z
?copyFile@CMC_System_Runner@@AAEPAVCMC_Variable@@PAVCMC_Object@@PAVCMC_ObjectsContainer@@PAVCXVector@@@Z
?copyFile@CMC_Variable_Runner@@AAEPAVCMC_Variable@@PAVCMC_Object@@PAVCMC_ObjectsContainer@@PAVCXVector@@@Z
?copyInto@CXVector@@UAEXPAV1@@Z
?copyTo@CMC_Array_Runner@@AAEPAVCMC_Variable@@PAVCMC_Object@@PAVCMC_ObjectsContainer@@PAVCXVector@@@Z
?copyToCanvas@CGraphicsObject@@CA_NPAU_canvas@@0@Z
?copyVariable@CMC_VariableFactory@@SAPAVCMC_Variable@@PAV2@@Z
?cosd@CMC_Variable_Runner@@AAEPAVCMC_Variable@@PAVCMC_Object@@PAVCMC_ObjectsContainer@@PAVCXVector@@@Z
?count@CMC_MultiArray@@UAEHPAVCMC_Variable@@@Z
?count@CMC_MultiArray_Runner@@AAEPAVCMC_Variable@@PAVCMC_Object@@PAVCMC_ObjectsContainer@@PAVCXVector@@@Z
?create@CMultimediaSequenceCreator@@SAPAVCPlayable@@PAVCWindow@@PAVCMElements@@VCXString@@@Z
?create@CSimpleFont6@@QAEXVCXString@@0@Z
?create@CTreeSequenceElements@@QAEXPAU_tse_entry@@PAVCPlayableObserver@@@Z
?create@CTreeSequenceElements@@QAEXPAVCPlayableObserver@@@Z
?createButton@CMC_Button@@AAEXXZ
?createObject@CMC_Scene@@UAEXVCXString@@0@Z
?createObject@CMC_Scene_Runner@@AAEPAVCMC_Variable@@PAVCMC_Object@@PAVCMC_ObjectsContainer@@PAVCXVector@@@Z
?createObject@CMElementCreator@@SAPAVCXObject@@PAVCWindow@@PAVCMElement@@@Z
?createPlayable@CMElementCreator@@SAPAVCPlayable@@PAVCWindow@@PAVCMElement@@@Z
?createSequence@CTreeSequenceElements@@AAEXPAU_tse_entry@@@Z
?createSimple@CTreeSequenceElements@@AAEXPAU_tse_entry@@@Z
?createSpeaking@CTreeSequenceElements@@AAEXPAU_tse_entry@@@Z
?create_surface@CDirectDrawSurface@@MAEX_N@Z
?crop@CGraphicsObject@@QAEXVCXRect@@@Z
?cut@CMC_Variable_Runner@@AAEPAVCMC_Variable@@PAVCMC_Object@@PAVCMC_ObjectsContainer@@PAVCXVector@@@Z
?dblPtr@CMC_VariableFactory@@0HA
?deactive@CMC_EditBox_Runner@@AAEPAVCMC_Variable@@PAVCMC_Object@@PAVCMC_ObjectsContainer@@PAVCXVector@@@Z
?debugger@CMC_Behaviour_Entry@@0PAVCMC_Debugger@@A
?dec@CMC_Bool@@UAEXXZ
?dec@CMC_Double@@UAEXXZ
?dec@CMC_Expression@@UAEXXZ
?dec@CMC_Integer@@UAEXXZ
?dec@CMC_String@@UAEXXZ
?dec@CMC_Structure@@UAEXXZ
?dec@CMC_Variable_Runner@@AAEPAVCMC_Variable@@PAVCMC_Object@@PAVCMC_ObjectsContainer@@PAVCXVector@@@Z
?declare@CMC_Structure@@UAEXVCXString@@0@Z
?decode@CSoundCodec_ADPCM@@UAEXPAVCFile@@@Z
?decode@CSoundCodec_PCM@@UAEXPAVCFile@@@Z
?decode@CTextCoder@@SAXPAVCWindow@@VCXString@@1@Z
?decompress@CLZWCompression2@@QAEPADXZ
?decompress@CLZWCompression@@QAEPADH@Z
?decompress@JPEG@@QAEPAFH@Z
?decrement@CInteger@@QAEXXZ
?delay@CMC_System_Runner@@AAEPAVCMC_Variable@@PAVCMC_Object@@PAVCMC_ObjectsContainer@@PAVCXVector@@@Z
?dir@CMC_Array_Runner@@AAEPAVCMC_Variable@@PAVCMC_Object@@PAVCMC_ObjectsContainer@@PAVCXVector@@@Z
?dirExists@CFile@@SA_NVCXString@@@Z
?disable@CMC_Behaviour_Runner@@AAEPAVCMC_Variable@@PAVCMC_Object@@PAVCMC_ObjectsContainer@@PAVCXVector@@@Z
?disable@CMC_Button_Runner@@AAEPAVCMC_Variable@@PAVCMC_Object@@PAVCMC_ObjectsContainer@@PAVCXVector@@@Z
?disable@CMC_EditBox_Runner@@AAEPAVCMC_Variable@@PAVCMC_Object@@PAVCMC_ObjectsContainer@@PAVCXVector@@@Z
?disable@CMC_Keyboard@@QAEXXZ
?disable@CMC_Keyboard_Runner@@AAEPAVCMC_Variable@@PAVCMC_Object@@PAVCMC_ObjectsContainer@@PAVCXVector@@@Z
?disable@CMC_Mouse@@QAEXXZ
?disable@CMC_Mouse_Runner@@AAEPAVCMC_Variable@@PAVCMC_Object@@PAVCMC_ObjectsContainer@@PAVCXVector@@@Z
?disable@CMC_Timer@@QAEXXZ
?disableButVisible@CMC_Button_Runner@@AAEPAVCMC_Variable@@PAVCMC_Object@@PAVCMC_ObjectsContainer@@PAVCXVector@@@Z
?disableDragging@CMC_Button_Runner@@AAEPAVCMC_Variable@@PAVCMC_Object@@PAVCMC_ObjectsContainer@@PAVCXVector@@@Z
?disableMusic@CMC_Application_Runner@@AAEPAVCMC_Variable@@PAVCMC_Object@@PAVCMC_ObjectsContainer@@PAVCXVector@@@Z
?disableSignal@CMC_Mouse@@QAEXXZ
?disableSignal@CMC_Mouse_Runner@@AAEPAVCMC_Variable@@PAVCMC_Object@@PAVCMC_ObjectsContainer@@PAVCXVector@@@Z
?disconnect@CMC_NetClient@@QAEXXZ
?disconnect@CNetworkClient@@QAEXXZ
?displacementFilter@CGraphicsObject@@QAEXPAVCXPoint@@_N1@Z
?div@CMC_Array@@UAEXPAVCMC_Variable@@@Z
?div@CMC_Array_Runner@@AAEPAVCMC_Variable@@PAVCMC_Object@@PAVCMC_ObjectsContainer@@PAVCXVector@@@Z
?div@CMC_Variable_Runner@@AAEPAVCMC_Variable@@PAVCMC_Object@@PAVCMC_ObjectsContainer@@PAVCXVector@@@Z
?diva@CMC_Array@@UAEXPAVCMC_String@@HH@Z
?diva@CMC_Array_Runner@@AAEPAVCMC_Variable@@PAVCMC_Object@@PAVCMC_ObjectsContainer@@PAVCXVector@@@Z
?divat@CMC_Array@@UAEXHPAVCMC_Variable@@@Z
?divat@CMC_Array_Runner@@AAEPAVCMC_Variable@@PAVCMC_Object@@PAVCMC_ObjectsContainer@@PAVCXVector@@@Z
?domodal@CAnimationManager@@QAEHXZ
?domodal@CApplication@@UAE_NXZ
?domodal@CMC_Application@@UAEXXZ
?domodal@CMC_Scene@@UAEXXZ
?domodal@CSoundManager@@QAEXXZ
?domodal@CUnit6@@UAE_NXZ
?domodal@CWindow@@QAE_NXZ
?domodal@CXTimer@@QAEHXZ
?done@CHotSpot@@SAXXZ
?done@CMC_Animo@@UAE_N_N@Z
?done@CMC_Behaviour@@UAE_N_N@Z
?done@CMC_Canvas@@UAEXXZ
?done@CMC_Class@@UAE_N_N@Z
?done@CMC_Condition@@UAE_N_N@Z
?done@CMC_Image@@UAE_N_N@Z
?done@CMC_Object@@UAE_N_N@Z
?done@CMC_Pattern@@UAE_N_N@Z
?done@CMC_RunnerFactory@@SAXXZ
?done@CMC_Sound@@UAE_N_N@Z
?done@CMC_VariableFactory@@SAXXZ
?done@CUnit6@@UAE_NPAVCMC_Scene@@PAV1@@Z
?doneDLLs@CMC_Scene@@MAEXXZ
?doneDebugger@CMC_Behaviour_Entry@@SAXPAVCWindow@@@Z
?doneDefUnit@CMC_Scene@@SAXXZ
?doneFirst@CMC_Object@@UAE_NXZ
?doneFirst@CMC_Pattern@@UAE_NXZ
?doneTrash@CMC_Behaviour@@SAXXZ
?done_codecs@CSoundCodec@@SAXXZ
?doubleSize@CXArray@@MAEXXZ
?doubleSize@CXVector@@MAEXXZ
?draw@CCanvas@@UAEXPAVCGraphicsObject@@HH@Z
?draw@CMC_Canvas_Runner@@AAEPAVCMC_Variable@@PAVCMC_Object@@PAVCMC_ObjectsContainer@@PAVCXVector@@@Z
?drawLetter@CFont5@@QAEHHHD@Z
?drawLetter@CFont5@@QAEHVCXPoint@@D@Z
?drawLetter@CFontCollection@@UAEHHHDD@Z
?drawLetter@CSimpleFont6@@UAEHHHDD@Z
?drawOnto@CMC_Animo_Runner@@AAEPAVCMC_Variable@@PAVCMC_Object@@PAVCMC_ObjectsContainer@@PAVCXVector@@@Z
?drawOnto@CMC_Image_Runner@@AAEPAVCMC_Variable@@PAVCMC_Object@@PAVCMC_ObjectsContainer@@PAVCXVector@@@Z
?drawOnto@CMC_Text_Runner@@AAEPAVCMC_Variable@@PAVCMC_Object@@PAVCMC_ObjectsContainer@@PAVCXVector@@@Z
?enable@CEditBox6@@QAEX_N@Z
?enable@CMC_Behaviour@@QAEX_N@Z
?enable@CMC_Behaviour_Runner@@AAEPAVCMC_Variable@@PAVCMC_Object@@PAVCMC_ObjectsContainer@@PAVCXVector@@@Z
?enable@CMC_Button_Runner@@AAEPAVCMC_Variable@@PAVCMC_Object@@PAVCMC_ObjectsContainer@@PAVCXVector@@@Z
?enable@CMC_EditBox_Runner@@AAEPAVCMC_Variable@@PAVCMC_Object@@PAVCMC_ObjectsContainer@@PAVCXVector@@@Z
?enable@CMC_Keyboard@@QAEXXZ
?enable@CMC_Keyboard_Runner@@AAEPAVCMC_Variable@@PAVCMC_Object@@PAVCMC_ObjectsContainer@@PAVCXVector@@@Z
?enable@CMC_Mouse@@QAEXXZ
?enable@CMC_Mouse_Runner@@AAEPAVCMC_Variable@@PAVCMC_Object@@PAVCMC_ObjectsContainer@@PAVCXVector@@@Z
?enable@CMC_Timer@@QAEXXZ
?enable@CXTimer@@SAX_N@Z
?enableCursor@CButton@@QAEX_N@Z
?enableDragging@CMC_Button_Runner@@AAEPAVCMC_Variable@@PAVCMC_Object@@PAVCMC_ObjectsContainer@@PAVCXVector@@@Z
?enableMouse@CWindow@@QAEX_N@Z
?enableMusic@CMC_Application_Runner@@AAEPAVCMC_Variable@@PAVCMC_Object@@PAVCMC_ObjectsContainer@@PAVCXVector@@@Z
?enableNotify@CMC_CanvasObserver@@QAEX_N@Z
?enableNotify@CMC_CanvasObserver_Runner@@AAEPAVCMC_Variable@@PAVCMC_Object@@PAVCMC_ObjectsContainer@@PAVCXVector@@@Z
?enableNotifyFlag@CRefreshScreen@@QAEX_N@Z
?enableSignal@CMC_Mouse@@QAEXXZ
?enableSignal@CMC_Mouse_Runner@@AAEPAVCMC_Variable@@PAVCMC_Object@@PAVCMC_ObjectsContainer@@PAVCXVector@@@Z
?enabled@CXTimer@@0_NA
?endsWith@CXString@@QAE_NV1@@Z
?eof@CFile@@QAE_NXZ
?eof@CTextFileReader@@QAE_NXZ
?equals@CInteger@@UAE_NPAVCXObject@@@Z
?equals@CMC_Bool@@UAE_NPAVCMC_Variable@@@Z
?equals@CMC_Double@@UAE_NPAVCMC_Variable@@@Z
?equals@CMC_Expression@@UAE_NPAVCMC_Variable@@@Z
?equals@CMC_Integer@@UAE_NPAVCMC_Variable@@@Z
?equals@CMC_String@@UAE_NPAVCMC_Variable@@@Z
?equals@CMC_Structure@@UAE_NPAVCMC_Variable@@@Z
?equals@CMProperty@@UAE_NPAVCXObject@@@Z
?equals@CStringHashCode@@UAE_NPAVCXObject@@@Z
?equals@CXObject@@UAE_NPAV1@@Z
?equals@CXString@@QAE_NV1@@Z
?equalsIgnoreCase@CXString@@QAE_NV1@@Z
?erase@CCanvas@@UAEXPAVCGraphicsObject@@HH@Z
?erase@CMC_Canvas_Runner@@AAEPAVCMC_Variable@@PAVCMC_Object@@PAVCMC_ObjectsContainer@@PAVCXVector@@@Z
?exePath@CWindow@@0VCXString@@A
?existsEnv@CMC_Application_Runner@@AAEPAVCMC_Variable@@PAVCMC_Object@@PAVCMC_ObjectsContainer@@PAVCXVector@@@Z
?exit@CMC_Application@@UAEXXZ
?exit@CMC_Application_Runner@@AAEPAVCMC_Variable@@PAVCMC_Object@@PAVCMC_ObjectsContainer@@PAVCXVector@@@Z
?exit@CUnit6@@QAEXXZ
?fSeek@CFile@@SAHPAV1@HH@Z
?fTell@CFile@@SAHPAV1@@Z
?fileExists@CFile@@SA_NVCXString@@@Z
?fill@CMC_Array_Runner@@AAEPAVCMC_Variable@@PAVCMC_Object@@PAVCMC_ObjectsContainer@@PAVCXVector@@@Z
?fillParams@CMC_Behaviour_Entry@@CAPADVCXString@@PAVCXArray@@@Z
?fillTOC@CBigFile@@AAEXPAU_rootentry@@PAU_entry@@VCXString@@@Z
?find@CCollisionInspector@@AAEPAVCMonitoredObject@@PAVCGraphicsObject@@@Z
?find@CMC_Array@@UAEHPAVCMC_Variable@@@Z
?find@CMC_Array_Runner@@AAEPAVCMC_Variable@@PAVCMC_Object@@PAVCMC_ObjectsContainer@@PAVCXVector@@@Z
?find@CMC_Database@@QAEHVCXString@@PAVCMC_Variable@@H@Z
?find@CMC_Database_Runner@@AAEPAVCMC_Variable@@PAVCMC_Object@@PAVCMC_ObjectsContainer@@PAVCXVector@@@Z
?find@CMC_Scene@@UAEPAV1@VCXString@@@Z
?find@CMC_Variable_Runner@@AAEPAVCMC_Variable@@PAVCMC_Object@@PAVCMC_ObjectsContainer@@PAVCXVector@@@Z
?find@CNetworkServer@@AAEPAVCNetPlayerInfo@@VCXString@@@Z
?find@CTreeSequenceElements@@QAEPAU_tse_entry@@VCXString@@@Z
?find@CValidationQuene@@QAEPAVCValidationElement@@PAVCGraphicsObject@@@Z
?find@CXArray@@UAEHPAX@Z
?find@CXTimer@@QAEPAVCTimerObject@@H@Z
?find@CXVector@@UAEHPAVCXObject@@@Z
?findAll@CMC_Array@@UAEHPAVCMC_Variable@@PAH@Z
?findAll@CMC_Array_Runner@@AAEPAVCMC_Variable@@PAVCMC_Object@@PAVCMC_ObjectsContainer@@PAVCXVector@@@Z
?findAt@CHotSpot@@SAPAV1@PAVCXVector@@VCXPoint@@@Z
?findCD@CApplication@@SA_NVCXString@@_N@Z
?findFirst@CFile@@SAHVCXString@@PAU_finddata_t@@@Z
?findLetter@CSimpleFont6@@AAEHD@Z
?findNext@CFile@@SAHHPAU_finddata_t@@@Z
?findOneOf@CXString@@UAEHV1@H@Z
?findToken@CCommandLine6@@AAE_NVCXString@@@Z
?finish@CSpeakingAnimation@@AAEXXZ
?first@CValidationQuene@@QAEPAVCValidationElement@@XZ
?flipH@CMC_Animo_Runner@@AAEPAVCMC_Variable@@PAVCMC_Object@@PAVCMC_ObjectsContainer@@PAVCXVector@@@Z
?flipH@CMC_Image_Runner@@AAEPAVCMC_Variable@@PAVCMC_Object@@PAVCMC_ObjectsContainer@@PAVCXVector@@@Z
?flipV@CMC_Animo_Runner@@AAEPAVCMC_Variable@@PAVCMC_Object@@PAVCMC_ObjectsContainer@@PAVCXVector@@@Z
?flipV@CMC_Image_Runner@@AAEPAVCMC_Variable@@PAVCMC_Object@@PAVCMC_ObjectsContainer@@PAVCXVector@@@Z
?flush@CAnimo6@@UAEXXZ
?flush@CDataBuffer@@UAEXXZ
?flush@CImage@@UAEXXZ
?flush@CMC_Object@@SAXPAVCMC_Variable@@_N@Z
?flush@CMC_Structure@@UAEXXZ
?flush@CMultilineText6@@UAEXXZ
?flush@CRefreshScreen@@QAEXXZ
?flush@CResourcesManager@@QAEXXZ
?flush@CSimpleFont6@@UAEXXZ
?flush@CSoundCodec@@UAEXXZ
?flushBehList@CMC_Object@@IAEXXZ
?flushCodes@CText6@@IAEXXZ
?flushEditBoxes@CUnit6@@UAEXXZ
?flushParams@CMC_Behaviour_Runner@@SAXPAVCXArray@@@Z
?flushSignals@CDXMouse@@QAEX_N@Z
?flushSignals@CKeyboard@@QAEX_N@Z
?flushSignals@CMC_Joystick@@QAEX_N@Z
?flushTempObjects@CMC_Behaviour@@AAEXXZ
?flushTrash@CMC_Behaviour@@SAXXZ
?free@CMC_VariableFactory@@SAXPAVCMC_Variable@@@Z
?fromString@CMC_Bool@@UAEXVCXString@@@Z
?fromString@CMC_Double@@UAEXVCXString@@@Z
?fromString@CMC_Integer@@UAEXVCXString@@@Z
?fromString@CMC_String@@UAEXVCXString@@@Z
?fromString@CMC_Structure@@UAEXVCXString@@@Z
?fromString@CMC_Variable@@UAEXVCXString@@@Z
?get@CFontCollection@@QAEPAVCSimpleFont6@@VCXString@@0H@Z
?get@CHashtable@@QAEPAVCXObject@@PAV2@@Z
?get@CMC_Array@@UAEPAVCMC_Variable@@H@Z
?get@CMC_Array_Runner@@AAEPAVCMC_Variable@@PAVCMC_Object@@PAVCMC_ObjectsContainer@@PAVCXVector@@@Z
?get@CMC_Groupped@@QAEPAVCMC_Object@@H@Z
?get@CMC_MultiArray@@UAEPAVCMC_Variable@@PAH@Z
?get@CMC_MultiArray_Runner@@AAEPAVCMC_Variable@@PAVCMC_Object@@PAVCMC_ObjectsContainer@@PAVCXVector@@@Z
?get@CMC_Rand_Runner@@AAEPAVCMC_Variable@@PAVCMC_Object@@PAVCMC_ObjectsContainer@@PAVCXVector@@@Z
?get@CMC_StructureParser@@QAEPAVCMC_Object@@VCXString@@@Z
?get@CMC_Variable_Runner@@AAEPAVCMC_Variable@@PAVCMC_Object@@PAVCMC_ObjectsContainer@@PAVCXVector@@@Z
?get@CMElements@@QAEPAVCMElement@@VCXString@@@Z
?get@CMProperties@@QAEPAVCMProperty@@VCXString@@@Z
?get@CMultimediaSequenceCreator@@QAEPAVCPlayable@@XZ
?get@CPattern@@QAEPAVCPatternEntry@@HHH@Z
?get@CResourcesManager@@QAEPAVCFileResolver@@VCXString@@@Z
?get@CSequencedPlayable@@QAEPAVCPlayable@@VCXString@@@Z
?getAliasAt@CMC_Pattern_Runner@@AAEPAVCMC_Variable@@PAVCMC_Object@@PAVCMC_ObjectsContainer@@PAVCXVector@@@Z
?getAliasAtCell@CMC_Pattern_Runner@@AAEPAVCMC_Variable@@PAVCMC_Object@@PAVCMC_ObjectsContainer@@PAVCXVector@@@Z
?getAliasEntry@CPattern@@QAEPAVCPatternEntry@@VCXString@@@Z
?getAliasInfo@CMC_Pattern_Runner@@AAEPAVCMC_Variable@@PAVCMC_Object@@PAVCMC_ObjectsContainer@@PAVCXVector@@@Z
?getAllAnimations@CSequencedPlayable@@QAEPAVCXArray@@XZ
?getAllOfType@CSequencedPlayable@@QAEPAVCXArray@@H@Z
?getAlpha@CMC_Animo_Runner@@AAEPAVCMC_Variable@@PAVCMC_Object@@PAVCMC_ObjectsContainer@@PAVCXVector@@@Z
?getAlpha@CMC_Image_Runner@@AAEPAVCMC_Variable@@PAVCMC_Object@@PAVCMC_ObjectsContainer@@PAVCXVector@@@Z
?getAlphabetHeight@CFont5@@QAEHXZ
?getAnchor@CGraphicsObject@@UAE?AVCXPoint@@XZ
?getAnchor@CMC_Animo_Runner@@AAEPAVCMC_Variable@@PAVCMC_Object@@PAVCMC_ObjectsContainer@@PAVCXVector@@@Z
?getAnimation@CSpeakingAnimation@@QAEPAVCAnimo@@XZ
?getAnimo@CMC_Animo@@QAEPAVCAnimo6@@XZ
?getAnimoManagerIfc@CApplication@@QAEPAVCAnimationManager@@XZ
?getApplied@CDirectDrawSurface@@QAEPAVCGraphicsObject@@XZ
?getAt@CMElements@@QAEPAVCMElement@@H@Z
?getAxis@CMC_Joystick@@UAEHH@Z
?getBackground@CCanvas@@QAEPAVCGraphicsObject@@XZ
?getBackgroundFileName@CUnit6@@UAE?AVCXString@@XZ
?getBackgroundIfc@CRefreshScreen@@QAEPAVCGraphicsObject@@XZ
?getBaseFont@CFontCollection@@QAEPAVCSimpleFont6@@XZ
?getBehaviour@CMC_Object@@UAEPAVCXPair@@VCXString@@@Z
?getBehaviourIndex@CMC_Object@@UAEHVCXString@@@Z
?getBehavioursList@CMC_Animo@@UAEPAPAVCXString@@XZ
?getBehavioursList@CMC_Array@@UAEPAPAVCXString@@XZ
?getBehavioursList@CMC_BasicCondition@@UAEPAPAVCXString@@XZ
?getBehavioursList@CMC_Behaviour@@UAEPAPAVCXString@@XZ
?getBehavioursList@CMC_Button@@UAEPAPAVCXString@@XZ
?getBehavioursList@CMC_Canvas@@UAEPAPAVCXString@@XZ
?getBehavioursList@CMC_CanvasObserver@@UAEPAPAVCXString@@XZ
?getBehavioursList@CMC_Database@@UAEPAPAVCXString@@XZ
?getBehavioursList@CMC_Dialog@@UAEPAPAVCXString@@XZ
?getBehavioursList@CMC_EditBox@@UAEPAPAVCXString@@XZ
?getBehavioursList@CMC_Font@@UAEPAPAVCXString@@XZ
?getBehavioursList@CMC_Groupped@@UAEPAPAVCXString@@XZ
?getBehavioursList@CMC_Image@@UAEPAPAVCXString@@XZ
?getBehavioursList@CMC_Joystick@@UAEPAPAVCXString@@XZ
?getBehavioursList@CMC_Keyboard@@UAEPAPAVCXString@@XZ
?getBehavioursList@CMC_Mouse@@UAEPAPAVCXString@@XZ
?getBehavioursList@CMC_MultiArray@@UAEPAPAVCXString@@XZ
?getBehavioursList@CMC_NetClient@@UAEPAPAVCXString@@XZ
?getBehavioursList@CMC_NetServer@@UAEPAPAVCXString@@XZ
?getBehavioursList@CMC_Object@@UAEPAPAVCXString@@XZ
?getBehavioursList@CMC_Pattern@@UAEPAPAVCXString@@XZ
?getBehavioursList@CMC_Scene@@UAEPAPAVCXString@@XZ
?getBehavioursList@CMC_Scroll@@UAEPAPAVCXString@@XZ
?getBehavioursList@CMC_Sequence@@UAEPAPAVCXString@@XZ
?getBehavioursList@CMC_Sound@@UAEPAPAVCXString@@XZ
?getBehavioursList@CMC_Structure@@UAEPAPAVCXString@@XZ
?getBehavioursList@CMC_Text@@UAEPAPAVCXString@@XZ
?getBehavioursList@CMC_Timer@@UAEPAPAVCXString@@XZ
?getBehavioursList@CMC_Variable@@UAEPAPAVCXString@@XZ
?getBehavioursList@CMC_VirtualGraphicsObject@@UAEPAPAVCXString@@XZ
?getBigFileHandle@CFile@@SAPAV1@XZ
?getBigFileIfc@CFile@@SAPAVCBigFile@@XZ
?getBkg@CBackgroundManager@CRefreshScreen@@QAEPAVCGraphicsObject@@XZ
?getBoolValue@CMProperty@@QAE_NXZ
?getBoundingBox@CSequencedPlayable@@QAE?AVCXRect@@H@Z
?getBoundingRect@CEditBox6@@QAE?AVCXRect@@XZ
?getBpp@CMC_CanvasObserver_Runner@@AAEPAVCMC_Variable@@PAVCMC_Object@@PAVCMC_ObjectsContainer@@PAVCXVector@@@Z
?getBreakpoint@CMC_Behaviour@@QAEHXZ
?getBuffer@CDataBuffer@@QAEPAXXZ
?getBuffer@CNetMessage@@QAEPADXZ
?getBufferIfc@CSoundCodec@@QAEPAVCDataBuffer@@XZ
?getBufferLen@CMC_Bool@@UAEHXZ
?getBufferLen@CMC_Double@@UAEHXZ
?getBufferLen@CMC_Expression@@UAEHXZ
?getBufferLen@CMC_Integer@@UAEHXZ
?getBufferLen@CMC_String@@UAEHXZ
?getBufferLen@CMC_Structure@@UAEHXZ
?getBufferLen@CNetMessage@@QAEHXZ
?getButton@CMC_Button@@QAEPAVCButton@@XZ
?getButton@CMC_Mouse@@SA?AVCXString@@H@Z
?getButtonState@CMC_Joystick@@UAE_NH@Z
?getButtonState@CMC_Joystick_Runner@@AAEPAVCMC_Variable@@PAVCMC_Object@@PAVCMC_ObjectsContainer@@PAVCXVector@@@Z
?getCDPath@CFile@@SA?AVCXString@@V2@@Z
?getCDPath@CWindow@@SA?AVCXString@@XZ
?getCFrameInEvent@CMC_Animo_Runner@@AAEPAVCMC_Variable@@PAVCMC_Object@@PAVCMC_ObjectsContainer@@PAVCXVector@@@Z
?getCanvas@CMC_Canvas@@QAEPAVCCanvas@@XZ
?getCanvas@CMC_CanvasObserver@@QAEPAVCRefreshScreen@@XZ
?getCanvas@CUnit6@@UAEPAVCRefreshScreen@@XZ
?getCellCord@CMC_Pattern_Runner@@AAEPAVCMC_Variable@@PAVCMC_Object@@PAVCMC_ObjectsContainer@@PAVCXVector@@@Z
?getCenterPoint@CAnimo@@UAE?AVCXPoint@@XZ
?getCenterPoint@CGraphicsObject@@UAE?AVCXPoint@@XZ
?getCenterX@CMC_Animo_Runner@@AAEPAVCMC_Variable@@PAVCMC_Object@@PAVCMC_ObjectsContainer@@PAVCXVector@@@Z
?getCenterX@CMC_Image_Runner@@AAEPAVCMC_Variable@@PAVCMC_Object@@PAVCMC_ObjectsContainer@@PAVCXVector@@@Z
?getCenterY@CMC_Animo_Runner@@AAEPAVCMC_Variable@@PAVCMC_Object@@PAVCMC_ObjectsContainer@@PAVCXVector@@@Z
?getCenterY@CMC_Image_Runner@@AAEPAVCMC_Variable@@PAVCMC_Object@@PAVCMC_ObjectsContainer@@PAVCXVector@@@Z
?getChar@CKeyboard@@AAEDH@Z
?getChildren@CMElement@@QAEPAVCMElements@@XZ
?getClass@CMC_Object@@UAEPAVCMC_Class@@XZ
?getClassPath@CMC_Class@@AAE?AVCXString@@V2@@Z
?getClick@CButton@@QAE?AVCXPoint@@XZ
?getCloneIdx@CMC_Object@@UAEHXZ
?getCloneIdx@CMC_Runner@@IAEPAVCMC_Variable@@PAVCMC_Object@@PAVCMC_ObjectsContainer@@PAVCXVector@@@Z
?getCloneName@CMC_Object@@UAE?AVCXString@@XZ
?getCloneNo@CMC_Runner@@IAEPAVCMC_Variable@@PAVCMC_Object@@PAVCMC_ObjectsContainer@@PAVCXVector@@@Z
?getClonesNo@CMC_Object@@UAEHXZ
?getCode@CMC_Behaviour@@QAE?AVCXString@@XZ
?getCode@CNetBehaviourMessage@@QAEPADXZ
?getCodeLines@CMC_Behaviour_Entry@@SAPAPAV1@PAVCMC_Behaviour@@VCXString@@@Z
?getCodec@CSoundCodec@@SAPAV1@H@Z
?getCodition@CMC_Behaviour@@QAE?AVCXString@@XZ
?getCollisionInspectorInterface@CWindow@@QAEPAVCCollisionInspector@@XZ
?getColor@CText6@@UAEHXZ
?getColor@CTextFormatCode@@QAEHXZ
?getColorAt@CMC_Image_Runner@@AAEPAVCMC_Variable@@PAVCMC_Object@@PAVCMC_ObjectsContainer@@PAVCXVector@@@Z
?getColorBAt@CMC_Image_Runner@@AAEPAVCMC_Variable@@PAVCMC_Object@@PAVCMC_ObjectsContainer@@PAVCXVector@@@Z
?getColorGAt@CMC_Image_Runner@@AAEPAVCMC_Variable@@PAVCMC_Object@@PAVCMC_ObjectsContainer@@PAVCXVector@@@Z
?getColorRAt@CMC_Image_Runner@@AAEPAVCMC_Variable@@PAVCMC_Object@@PAVCMC_ObjectsContainer@@PAVCXVector@@@Z
?getColoruredText@CText6@@UAE?AVCXString@@V2@H@Z
?getCommand@CNetCmdMessage@@QAEPADXZ
?getCommandLine@CApplication@@QAEPAVCCommandLine6@@XZ
?getCommandLineIfc@CWindow@@QAEPAVCCommandLine6@@XZ
?getConditionInterface@CMC_Behaviour@@QAEPAVCMC_BasicCondition@@XZ
?getCoords@CMC_MultiArray@@AAEPAHH@Z
?getCount@CXString@@UAEHE@Z
?getCriticalSectionHandle@CWindow@@QAEPAU_RTL_CRITICAL_SECTION@@XZ
?getCurTime@CMC_System@@AAEPAUtm@@XZ
?getCurrFramePosition@CAnimo@@QAE?AVCXPoint@@XZ
?getCurrFramePositionX@CMC_Animo_Runner@@AAEPAVCMC_Variable@@PAVCMC_Object@@PAVCMC_ObjectsContainer@@PAVCXVector@@@Z
?getCurrFramePositionY@CMC_Animo_Runner@@AAEPAVCMC_Variable@@PAVCMC_Object@@PAVCMC_ObjectsContainer@@PAVCXVector@@@Z
?getCurrentDirectory@CFile@@SA?AVCXString@@XZ
?getCurrentDirectory@CFile@@SAXHPAD@Z
?getCurrentEditBoxIndex@CUnit6@@UAEHXZ
?getCurrentEventName@CAnimo@@QAE?AVCXString@@XZ
?getCurrentScene@CMC_Episode_Runner@@AAEPAVCMC_Variable@@PAVCMC_Object@@PAVCMC_ObjectsContainer@@PAVCXVector@@@Z
?getCurrentScene@CMC_Scene@@UAEPAV1@XZ
?getCursorPos@CMC_Database@@QAEHXZ
?getDIIfc@CWindow@@QAEPAUIDirectInput8A@@XZ
?getDXIfc@CMC_Joystick@@UAEPAUIDirectInputDevice8A@@XZ
?getDXMouseInterface@CWindow@@QAEPAVCDXMouse@@XZ
?getDate@CMC_System@@QAEHXZ
?getDate@CMC_System_Runner@@AAEPAVCMC_Variable@@PAVCMC_Object@@PAVCMC_ObjectsContainer@@PAVCXVector@@@Z
?getDateString@CMC_System@@QAE?AVCXString@@XZ
?getDateString@CMC_System_Runner@@AAEPAVCMC_Variable@@PAVCMC_Object@@PAVCMC_ObjectsContainer@@PAVCXVector@@@Z
?getDay@CMC_System@@QAEHXZ
?getDay@CMC_System_Runner@@AAEPAVCMC_Variable@@PAVCMC_Object@@PAVCMC_ObjectsContainer@@PAVCXVector@@@Z
?getDayOfWeek@CMC_System@@QAEHXZ
?getDayOfWeek@CMC_System_Runner@@AAEPAVCMC_Variable@@PAVCMC_Object@@PAVCMC_ObjectsContainer@@PAVCXVector@@@Z
?getDayOfWeekString@CMC_System@@QAE?AVCXString@@XZ
?getDayOfWeekString@CMC_System_Runner@@AAEPAVCMC_Variable@@PAVCMC_Object@@PAVCMC_ObjectsContainer@@PAVCXVector@@@Z
?getDebuggerIfc@CMC_Behaviour_Entry@@SAPAVCMC_Debugger@@XZ
?getDefColor@CSimpleFont6@@QAEHXZ
?getDefUnit@CMC_Scene@@SAPAVCUnit6@@XZ
?getDefaultFont@CApplication@@QAEPAVCFont5@@XZ
?getDesc@CSoundCodec_ADPCM@@UAEPAUtWAVEFORMATEX@@XZ
?getDesc@CSoundCodec_PCM@@UAEPAUtWAVEFORMATEX@@XZ
?getDestroyedName@CMC_NetServer@@QAE?AVCXString@@XZ
?getDestroyedName@CMC_NetServer_Runner@@AAEPAVCMC_Variable@@PAVCMC_Object@@PAVCMC_ObjectsContainer@@PAVCXVector@@@Z
?getDialog@CMC_Dialog@@QAEPAVCXDialog@@XZ
?getDirectDrawInterface@CSurface@@QAEPAUIDirectDraw7@@XZ
?getDirectories@CFileNameResolver@@QAEPAVCXArray@@XZ
?getDoubleValue@CMProperty@@QAENXZ
?getDraggedData@CUnit6@@QAEPAXXZ
?getDraggedName@CMC_Scene@@QAE?AVCXString@@XZ
?getDraggedName@CMC_Scene_Runner@@AAEPAVCMC_Variable@@PAVCMC_Object@@PAVCMC_ObjectsContainer@@PAVCXVector@@@Z
?getDraggingMode@CUnit6@@QAE_NXZ
?getDrawn@CAnimo@@UAEPAVCGraphicsObject@@XZ
?getDrawn@CGraphicsObject@@UAEPAV1@XZ
?getDrive@CFileNameResolver@@QAEEXZ
?getEXEPath@CWindow@@SA?AVCXString@@XZ
?getEditBox@CMC_EditBox@@QAEPAVCEditBox6@@XZ
?getEditBoxes@CText6@@QAEPAVCXVector@@XZ
?getElements@CHashtable@@QAEPAVCXVector@@XZ
?getElements@CMC_Array@@QAEPAVCXVector@@XZ
?getElementsNo@CMC_ObjectsContainer@@QAEHXZ
?getElementsNo@CMC_Scene_Runner@@AAEPAVCMC_Variable@@PAVCMC_Object@@PAVCMC_ObjectsContainer@@PAVCXVector@@@Z
?getEntryAt@CPattern@@QAEPAVCPatternEntry@@HHH_N0@Z
?getEntryAtCell@CPattern@@QAEPAVCPatternEntry@@HHH@Z
?getEventName@CMC_Animo_Runner@@AAEPAVCMC_Variable@@PAVCMC_Object@@PAVCMC_ObjectsContainer@@PAVCXVector@@@Z
?getEventName@CMC_Sequence_Runner@@AAEPAVCMC_Variable@@PAVCMC_Object@@PAVCMC_ObjectsContainer@@PAVCXVector@@@Z
?getExtension@CFileNameResolver@@QAE?AVCXString@@XZ
?getFFArray@CGraphicsObject@@QAEPAU_floodfill@@XZ
?getFFEnterances@CGraphicsObject@@QAEHXZ
?getFPS@CAnimo@@UAEHXZ
?getFPS@CPlayable@@UAEHXZ
?getFamily@CSimpleFont6@@QAE?AVCXString@@XZ
?getField@CMC_Structure@@QAEPAVCMC_Variable@@H@Z
?getField@CMC_Structure@@QAEPAVCMC_Variable@@VCXString@@@Z
?getField@CMC_Structure_Runner@@AAEPAVCMC_Variable@@PAVCMC_Object@@PAVCMC_ObjectsContainer@@PAVCXVector@@@Z
?getFileName@CFileNameResolver@@QAE?AVCXString@@XZ
?getFileName@CFileResolver@@UAE?AVCXString@@XZ
?getFileName@CGraphicsObject@@QAE?AVCXString@@XZ
?getFirst@CXPair@@QAEPAXXZ
?getFirstEvent@CAnimo@@QAEHXZ
?getFirstFrame@CAnimo@@QAEHXZ
?getFont@CMC_Font@@QAEPAVCFontCollection@@XZ
?getFont@CTextFormatCode@@QAEPAVCSimpleFont6@@XZ
?getFontsList@CMC_Font@@QAEPAVCXVector@@XZ
?getFrame@CAnimo@@QAEPAVCFrame@@VCXString@@@Z
?getFrame@CMC_Animo_Runner@@AAEPAVCMC_Variable@@PAVCMC_Object@@PAVCMC_ObjectsContainer@@PAVCXVector@@@Z
?getFrameName@CAnimo@@QAE?AVCXString@@HH@Z
?getFrameName@CMC_Animo_Runner@@AAEPAVCMC_Variable@@PAVCMC_Object@@PAVCMC_ObjectsContainer@@PAVCXVector@@@Z
?getFrameNo@CAnimo@@QAEHVCXString@@@Z
?getFrameNo@CMC_Animo_Runner@@AAEPAVCMC_Variable@@PAVCMC_Object@@PAVCMC_ObjectsContainer@@PAVCXVector@@@Z
?getFullPath@CPath@@SA?AVCXString@@V2@00@Z
?getFullPath@CPath@@SA?AVCXString@@V2@0@Z
?getGeneralResourcesManager@CApplication@@QAEPAVCResourcesManager@@XZ
?getGfxType@CAnimo6@@UAEHXZ
?getGfxType@CGraphicsObject@@UAEHXZ
?getGraphicsAt@CMC_CanvasObserver@@QAE?AVCXString@@HH_NHH0@Z
?getGraphicsAt@CMC_CanvasObserver_Runner@@AAEPAVCMC_Variable@@PAVCMC_Object@@PAVCMC_ObjectsContainer@@PAVCXVector@@@Z
?getGraphicsAt@CMC_Pattern_Runner@@AAEPAVCMC_Variable@@PAVCMC_Object@@PAVCMC_ObjectsContainer@@PAVCXVector@@@Z
?getGraphicsAt@CRefreshScreen@@UAEPAVCGraphicsObject@@HH_NHH0@Z
?getGraphicsObject@CMC_ObjectsContainer@@QAEPAVCGraphicsObject@@VCXString@@@Z
?getGraphicsObject@CPattern@@UAEPAVCGraphicsObject@@HH_N0HH@Z
?getGraphicsObjectAlias@CPattern@@QAEPAVCXString@@HH_N0@Z
?getGraphicsObjectName@CMC_ObjectsContainer@@QAE?AVCXString@@PAVCGraphicsObject@@@Z
?getGrid@CPattern@@QAE?AVCXSize@@XZ
?getHJustify@CText6@@QAE?AW4_justify@@XZ
?getHashcode@CInteger@@UAEHXZ
?getHashcode@CStringHashCode@@UAEHXZ
?getHashcode@CXObject@@UAEHXZ
?getHeight@CDataBuffer2Dim@@UAEHXZ
?getHeight@CGraphicsObject@@UAEHXZ
?getHeight@CMC_Animo_Runner@@AAEPAVCMC_Variable@@PAVCMC_Object@@PAVCMC_ObjectsContainer@@PAVCXVector@@@Z
?getHeight@CMC_Image_Runner@@AAEPAVCMC_Variable@@PAVCMC_Object@@PAVCMC_ObjectsContainer@@PAVCXVector@@@Z
?getHeight@CMC_Text_Runner@@AAEPAVCMC_Variable@@PAVCMC_Object@@PAVCMC_ObjectsContainer@@PAVCXVector@@@Z
?getHeight@CMC_VirtualGraphicsObject_Runner@@AAEPAVCMC_Variable@@PAVCMC_Object@@PAVCMC_ObjectsContainer@@PAVCXVector@@@Z
?getHeight@CMultilineText6@@UAEHXZ
?getHeight@JPEG@@QAEHXZ
?getHostName@CNetworkClient@@SA?AVCXString@@PAD@Z
?getHotSpot@CButton@@QAEPAVCHotSpot@@XZ
?getHour@CMC_System@@QAEHXZ
?getHour@CMC_System_Runner@@AAEPAVCMC_Variable@@PAVCMC_Object@@PAVCMC_ObjectsContainer@@PAVCXVector@@@Z
?getId@CControl@@UAEHXZ
?getId@CMC_Variable@@QAEHXZ
?getIfc@CMC_Joystick@@SAPAV1@XZ
?getImage@CMC_Image@@QAEPAVCImage@@XZ
?getIndex@CMC_Database_Runner@@AAEPAVCMC_Variable@@PAVCMC_Object@@PAVCMC_ObjectsContainer@@PAVCXVector@@@Z
?getIndex@CMC_MultiArray@@AAEHPAH0@Z
?getIndex@CMC_MultiArray@@AAEHPAH@Z
?getIndex@CRefreshScreen@@QAEHPAVCGraphicsObject@@@Z
?getIndex@CValidationQuene@@QAEHPAVCGraphicsObject@@@Z
?getInfoAt@CMC_Pattern_Runner@@AAEPAVCMC_Variable@@PAVCMC_Object@@PAVCMC_ObjectsContainer@@PAVCXVector@@@Z
?getInstance@CNetworkClient@@SAPAV1@XZ
?getInstance@CNetworkServer@@SAPAV1@XZ
?getIntValue@CMProperty@@QAEHXZ
?getKerning@CSimpleFont6@@QAEHHH@Z
?getKerning@CSimpleFont6@@QAEHHPAVCFrame@@H0@Z
?getKeySignal@CMC_Keyboard@@AAE?AVCXString@@H@Z
?getKeyboardInterface@CWindow@@QAEPAVCKeyboard@@XZ
?getKeys@CHashtable@@QAEPAVCXVector@@XZ
?getLang@CLanguageOSVer@@QAEHXZ
?getLangIfc@CWindow@@QAEPAVCLanguageOSVer@@XZ
?getLanguage@CMC_Application_Runner@@AAEPAVCMC_Variable@@PAVCMC_Object@@PAVCMC_ObjectsContainer@@PAVCXVector@@@Z
?getLanguageFolder@CLanguageOSVer@@QAE?AVCXString@@XZ
?getLastClickPosX@CMC_Mouse@@QAEHXZ
?getLastClickPosX@CMC_Mouse_Runner@@AAEPAVCMC_Variable@@PAVCMC_Object@@PAVCMC_ObjectsContainer@@PAVCXVector@@@Z
?getLastClickPosY@CMC_Mouse@@QAEHXZ
?getLastClickPosY@CMC_Mouse_Runner@@AAEPAVCMC_Variable@@PAVCMC_Object@@PAVCMC_ObjectsContainer@@PAVCXVector@@@Z
?getLastPlayedEvent@CPlayable@@UAE?AVCXString@@XZ
?getLastPlayedEvent@CSequencedPlayable@@QAE?AVCXString@@V2@@Z
?getLatestKey@CMC_Keyboard@@UAE?AVCXString@@XZ
?getLatestKey@CMC_Keyboard_Runner@@AAEPAVCMC_Variable@@PAVCMC_Object@@PAVCMC_ObjectsContainer@@PAVCXVector@@@Z
?getLatestKeys@CMC_Keyboard@@UAEPAVCXFifoQuene@@XZ
?getLatestKeys@CMC_Keyboard_Runner@@AAEPAVCMC_Variable@@PAVCMC_Object@@PAVCMC_ObjectsContainer@@PAVCXVector@@@Z
?getLatestPlayer@CNetworkServer@@QAEPAVCNetPlayerInfo@@XZ
?getLatestPlayerName@CMC_NetServer_Runner@@AAEPAVCMC_Variable@@PAVCMC_Object@@PAVCMC_ObjectsContainer@@PAVCXVector@@@Z
?getLatestScene@CMC_Episode@@QAE?AVCXString@@XZ
?getLatestScene@CMC_Episode_Runner@@AAEPAVCMC_Variable@@PAVCMC_Object@@PAVCMC_ObjectsContainer@@PAVCXVector@@@Z
?getLayers@CPattern@@QAEHXZ
?getLeftOffset@CSimpleFont6@@QAEHPAVCGraphicsObject@@@Z
?getLength@CMultilineText6@@QAEHXZ
?getLength@CText6@@QAEHXZ
?getLength@CText6@@SAHPAVCSimpleFont6@@VCXString@@@Z
?getLengthInPixels@CFont5@@QAEHVCXString@@H@Z
?getLetterHeight@CFont5@@QAEHD@Z
?getLetterSize@CFont5@@QAE?AVCXSize@@D@Z
?getLetterWidth@CFont5@@QAEHD@Z
?getLetterWidth@CFontCollection@@UAEHDD@Z
?getLetterWidth@CSimpleFont6@@UAEHDD@Z
?getLine@CFile@@QAE?AVCXString@@XZ
?getLine@CMC_Behaviour_Entry@@QAE?AVCXString@@XZ
?getLine@CMElementsLoader@@SA?AVCXString@@PAVCTextCoder@@@Z
?getLine@CTextCoder@@UAE?AVCXString@@XZ
?getLine@CTextFileReader@@QAE?AVCXString@@XZ
?getLines@CMC_Behaviour@@QAEPAPAVCMC_Behaviour_Entry@@XZ
?getList@CMC_Groupped@@QAEPAVCXVector@@XZ
?getListValue@CMProperty@@QAEPAVCXArray@@XZ
?getLoadAtStart@CAnimo@@QAE_NXZ
?getLocalFileName@CLanguageOSVer@@QAE?AVCXString@@V2@@Z
?getLocalPath@CFile@@SA?AVCXString@@V2@@Z
?getMCApplication@CMC_Application@@UAEPAV1@XZ
?getMCApplication@CMC_Episode@@UAEPAVCMC_Application@@XZ
?getMCApplication@CMC_Scene@@UAEPAVCMC_Application@@XZ
?getMCApplication@CMC_StructureParser@@QAEPAVCMC_Application@@XZ
?getMCApplicationIfc@CApplication@@QAEPAVCMC_Application@@XZ
?getMHz@CMC_System@@QAEHXZ
?getMHz@CMC_System_Runner@@AAEPAVCMC_Variable@@PAVCMC_Object@@PAVCMC_ObjectsContainer@@PAVCXVector@@@Z
?getMarkerPos@CMC_Array@@UAEHXZ
?getMarkerPos@CMC_Array_Runner@@AAEPAVCMC_Variable@@PAVCMC_Object@@PAVCMC_ObjectsContainer@@PAVCXVector@@@Z
?getMarkerPos@CMC_Groupped@@UAEHXZ
?getMarkerPos@CMC_Groupped_Runner@@AAEPAVCMC_Variable@@PAVCMC_Object@@PAVCMC_ObjectsContainer@@PAVCXVector@@@Z
?getMaxHeight@CMC_Animo_Runner@@AAEPAVCMC_Variable@@PAVCMC_Object@@PAVCMC_ObjectsContainer@@PAVCXVector@@@Z
?getMaxPriority@CHotSpot@@SAHXZ
?getMaxPriority@CMC_Scene_Runner@@AAEPAVCMC_Variable@@PAVCMC_Object@@PAVCMC_ObjectsContainer@@PAVCXVector@@@Z
?getMaxWidth@CMC_Animo_Runner@@AAEPAVCMC_Variable@@PAVCMC_Object@@PAVCMC_ObjectsContainer@@PAVCXVector@@@Z
?getMemoryUsage@CDataBuffer@@QAEHXZ
?getMethod@CMC_Behaviour_Entry@@QAEHXZ
?getMinPriority@CHotSpot@@SAHXZ
?getMinPriority@CMC_Scene_Runner@@AAEPAVCMC_Variable@@PAVCMC_Object@@PAVCMC_ObjectsContainer@@PAVCXVector@@@Z
?getMinutes@CMC_System@@QAEHXZ
?getMinutes@CMC_System_Runner@@AAEPAVCMC_Variable@@PAVCMC_Object@@PAVCMC_ObjectsContainer@@PAVCXVector@@@Z
?getMode@CPlayable@@QAEHXZ
?getMode@CTextFormatCode@@QAEHXZ
?getModuleInterface@CMC_DLLExModuleInterface@@QAEPAVCMC_ExternObject@@XZ
?getMonitorCollisionsFlag@CGraphicsObject@@UAE_NXZ
?getMonth@CMC_System@@QAEHXZ
?getMonth@CMC_System_Runner@@AAEPAVCMC_Variable@@PAVCMC_Object@@PAVCMC_ObjectsContainer@@PAVCXVector@@@Z
?getMonthString@CMC_System@@QAE?AVCXString@@XZ
?getMonthString@CMC_System_Runner@@AAEPAVCMC_Variable@@PAVCMC_Object@@PAVCMC_ObjectsContainer@@PAVCXVector@@@Z
?getMusicFileName@CUnit6@@UAE?AVCXString@@XZ
?getMusicFilename@CMC_Scene@@UAE?AVCXString@@XZ
?getMusicVolume@CMC_Scene_Runner@@AAEPAVCMC_Variable@@PAVCMC_Object@@PAVCMC_ObjectsContainer@@PAVCXVector@@@Z
?getMusicVolume@CWindow@@QAEHXZ
?getNOE@CMC_Animo_Runner@@AAEPAVCMC_Variable@@PAVCMC_Object@@PAVCMC_ObjectsContainer@@PAVCXVector@@@Z
?getNOF@CMC_Animo_Runner@@AAEPAVCMC_Variable@@PAVCMC_Object@@PAVCMC_ObjectsContainer@@PAVCXVector@@@Z
?getNOFInEvent@CMC_Animo_Runner@@AAEPAVCMC_Variable@@PAVCMC_Object@@PAVCMC_ObjectsContainer@@PAVCXVector@@@Z
?getName@CMC_Groupped_Runner@@AAEPAVCMC_Variable@@PAVCMC_Object@@PAVCMC_ObjectsContainer@@PAVCXVector@@@Z
?getName@CMC_Object@@QAE?AVCXString@@XZ
?getName@CMC_Runner@@IAEPAVCMC_Variable@@PAVCMC_Object@@PAVCMC_ObjectsContainer@@PAVCXVector@@@Z
?getName@CMElement@@QAE?AVCXString@@XZ
?getName@CMProperty@@QAE?AVCXString@@XZ
?getName@CNetPlayerInfo@@QAE?AVCXString@@XZ
?getName@CPlayable@@QAE?AVCXString@@XZ
?getName@CTextFormatCode@@QAE?AVCXString@@XZ
?getName@CXPair@@QAE?AVCXString@@XZ
?getNameAtMarker@CMC_Groupped_Runner@@AAEPAVCMC_Variable@@PAVCMC_Object@@PAVCMC_ObjectsContainer@@PAVCXVector@@@Z
?getNextToken@CCommandLine6@@AAE?AVCXString@@V2@@Z
?getNoArgs@CCommandLine6@@QAEHXZ
?getNotifiers@CPlayable@@UAEPAVCXArray@@XZ
?getObject@CMC_Behaviour_Entry@@QAEPAVCMC_Object@@XZ
?getObject@CMC_Episode@@QAEPAVCXObject@@VCXString@@@Z
?getObject@CMC_ObjectsContainer@@QAEPAVCMC_Object@@H@Z
?getObject@CMC_ObjectsContainer@@QAEPAVCMC_Object@@PAD@Z
?getObjectId@CMC_ObjectsContainer@@QAEHVCXString@@@Z
?getObjects@CMC_ObjectsContainer@@QAEPAVCXVector@@XZ
?getObjects@CMC_ObjectsContainer@@UAEXVCXString@@PAVCMC_Groupped@@@Z
?getObjects@CMC_Scene_Runner@@AAEPAVCMC_Variable@@PAVCMC_Object@@PAVCMC_ObjectsContainer@@PAVCXVector@@@Z
?getObjectsOfType@CMC_ObjectsContainer@@QAEPAVCXVector@@H@Z
?getOffset@CTextCoder@@EAEHH@Z
?getOnClick@CMC_Button_Runner@@AAEPAVCMC_Variable@@PAVCMC_Object@@PAVCMC_ObjectsContainer@@PAVCXVector@@@Z
?getOnMove@CMC_Button_Runner@@AAEPAVCMC_Variable@@PAVCMC_Object@@PAVCMC_ObjectsContainer@@PAVCXVector@@@Z
?getOpacity@CMC_Animo_Runner@@AAEPAVCMC_Variable@@PAVCMC_Object@@PAVCMC_ObjectsContainer@@PAVCXVector@@@Z
?getOpacity@CMC_Image_Runner@@AAEPAVCMC_Variable@@PAVCMC_Object@@PAVCMC_ObjectsContainer@@PAVCXVector@@@Z
?getParam@CPlayable@@UAE?AVCXString@@XZ
?getParameter@CMC_Runner@@UAEPAVCMC_Variable@@PAVCXVector@@H@Z
?getParameter@CMultimediaSequenceCreator@@SADH@Z
?getParameter@CPlayable@@UAE?AVCXString@@V2@@Z
?getParameter@CPlayable@@UAE?AVCXString@@XZ
?getParameter@CSequencedPlayable@@UAE?AVCXString@@XZ
?getParameterBool@CMC_Runner@@UAEPAVCMC_Bool@@PAVCXVector@@H@Z
?getParameterDouble@CMC_Runner@@UAEPAVCMC_Double@@PAVCXVector@@H@Z
?getParameterInteger@CMC_Runner@@UAEPAVCMC_Integer@@PAVCXVector@@H@Z
?getParameterString@CMC_Runner@@UAEPAVCMC_String@@PAVCXVector@@H@Z
?getParameters@CMC_Behaviour_Entry@@QAEPAVCXVector@@XZ
?getParams@CMC_Behaviour_Runner@@AAEPAVCXArray@@PAVCMC_ObjectsContainer@@PAVCXVector@@@Z
?getParent@CMC_ObjectsContainer@@QAEPAV1@XZ
?getParentsNo@CPlayable@@QAEHXZ
?getPath@CCommandLine6@@QAE?AVCXString@@XZ
?getPath@CFile@@SA?AVCXString@@PAVCWindow@@V2@@Z
?getPath@CFileNameResolver@@QAE?AVCXString@@XZ
?getPath@CFolder@@QAE?AVCXString@@XZ
?getPath@CMC_Scene@@UAE?AVCXString@@XZ
?getPattern@CMC_Pattern@@QAEPAVCPattern@@XZ
?getPixel@CMC_Animo_Runner@@AAEPAVCMC_Variable@@PAVCMC_Object@@PAVCMC_ObjectsContainer@@PAVCXVector@@@Z
?getPixel@CMC_Image_Runner@@AAEPAVCMC_Variable@@PAVCMC_Object@@PAVCMC_ObjectsContainer@@PAVCXVector@@@Z
?getPlayable@CRandomPlayableEntry@@UAEPAVCPlayable@@XZ
?getPlayerID@CNetPlayerInfo@@QAEKXZ
?getPlayerName@CNetworkClient@@AAE?AVCXString@@XZ
?getPlaying@CMC_Sequence_Runner@@AAEPAVCMC_Variable@@PAVCMC_Object@@PAVCMC_ObjectsContainer@@PAVCXVector@@@Z
?getPlaying@CPlayable@@UAEPAV1@XZ
?getPlaying@CSequencedPlayable@@UAEPAVCPlayable@@XZ
?getPlayingAnimo@CMC_Scene@@UAEXPAVCMC_Groupped@@@Z
?getPlayingAnimo@CMC_Scene_Runner@@AAEPAVCMC_Variable@@PAVCMC_Object@@PAVCMC_ObjectsContainer@@PAVCXVector@@@Z
?getPlayingSeq@CMC_Scene@@UAEXPAVCMC_Array@@@Z
?getPlayingSeq@CMC_Scene_Runner@@AAEPAVCMC_Variable@@PAVCMC_Object@@PAVCMC_ObjectsContainer@@PAVCXVector@@@Z
?getPlenty@CMC_Rand_Runner@@AAEPAVCMC_Variable@@PAVCMC_Object@@PAVCMC_ObjectsContainer@@PAVCXVector@@@Z
?getPointValue@CMProperty@@QAE?AVCXPoint@@XZ
?getPosOffset@CFrame@@QAE?AVCXPoint@@XZ
?getPosX@CMC_Mouse@@QAEHXZ
?getPosX@CMC_Mouse_Runner@@AAEPAVCMC_Variable@@PAVCMC_Object@@PAVCMC_ObjectsContainer@@PAVCXVector@@@Z
?getPosY@CMC_Mouse@@QAEHXZ
?getPosY@CMC_Mouse_Runner@@AAEPAVCMC_Variable@@PAVCMC_Object@@PAVCMC_ObjectsContainer@@PAVCXVector@@@Z
?getPosition@CAnimo@@UAE?AVCXPoint@@XZ
?getPosition@CGraphicsObject@@UAE?AVCXPoint@@XZ
?getPosition@CMC_Joystick_Runner@@AAEPAVCMC_Variable@@PAVCMC_Object@@PAVCMC_ObjectsContainer@@PAVCXVector@@@Z
?getPosition@CSequencedPlayable@@QAE?AVCXPoint@@H@Z
?getPosition@CStreamedWAV@@QAEJXZ
?getPositionX@CMC_Animo_Runner@@AAEPAVCMC_Variable@@PAVCMC_Object@@PAVCMC_ObjectsContainer@@PAVCXVector@@@Z
?getPositionX@CMC_Image_Runner@@AAEPAVCMC_Variable@@PAVCMC_Object@@PAVCMC_ObjectsContainer@@PAVCXVector@@@Z
?getPositionX@CMC_Text_Runner@@AAEPAVCMC_Variable@@PAVCMC_Object@@PAVCMC_ObjectsContainer@@PAVCXVector@@@Z
?getPositionX@CMC_VirtualGraphicsObject_Runner@@AAEPAVCMC_Variable@@PAVCMC_Object@@PAVCMC_ObjectsContainer@@PAVCXVector@@@Z
?getPositionY@CMC_Animo_Runner@@AAEPAVCMC_Variable@@PAVCMC_Object@@PAVCMC_ObjectsContainer@@PAVCXVector@@@Z
?getPositionY@CMC_Image_Runner@@AAEPAVCMC_Variable@@PAVCMC_Object@@PAVCMC_ObjectsContainer@@PAVCXVector@@@Z
?getPositionY@CMC_Text_Runner@@AAEPAVCMC_Variable@@PAVCMC_Object@@PAVCMC_ObjectsContainer@@PAVCXVector@@@Z
?getPositionY@CMC_VirtualGraphicsObject_Runner@@AAEPAVCMC_Variable@@PAVCMC_Object@@PAVCMC_ObjectsContainer@@PAVCXVector@@@Z
?getPriority@CButton@@UAEHXZ
?getPriority@CHotSpot@@UAEHXZ
?getPriority@CMC_Animo_Runner@@AAEPAVCMC_Variable@@PAVCMC_Object@@PAVCMC_ObjectsContainer@@PAVCXVector@@@Z
?getPriority@CMC_Button_Runner@@AAEPAVCMC_Variable@@PAVCMC_Object@@PAVCMC_ObjectsContainer@@PAVCXVector@@@Z
?getProperties@CMElement@@QAEPAVCMProperties@@XZ
?getPropertyBoolValue@CMElement@@QAE_NVCXString@@@Z
?getPropertyDoubleValue@CMElement@@QAENVCXString@@@Z
?getPropertyIntValue@CMElement@@QAEHVCXString@@@Z
?getPropertyListValue@CMElement@@QAEPAVCXArray@@VCXString@@@Z
?getPropertyPointValue@CMElement@@QAE?AVCXPoint@@VCXString@@@Z
?getPropertyRectValue@CMElement@@QAE?AVCXRect@@VCXString@@@Z
?getPropertySizeValue@CMElement@@QAE?AVCXSize@@VCXString@@@Z
?getPropertyValue@CMElement@@QAE?AVCXString@@V2@@Z
?getPtr@CDataBuffer@@QAEPAXXZ
?getPtr@CMemStream@@QAEPAEXZ
?getPublicTrashInterface@CWindow@@QAEPAVCPublicTrash@@XZ
?getPureFileName@CFileNameResolver@@QAE?AVCXString@@XZ
?getRealLetterWidth@CFontCollection@@UAEHD@Z
?getRealLetterWidth@CSimpleFont6@@UAEHD@Z
?getRect@CAnimo6@@UAE?AVCXRect@@XZ
?getRect@CGraphicsObject@@UAE?AVCXRect@@XZ
?getRectValue@CMProperty@@QAE?AVCXRect@@XZ
?getRefreshCounter@CRefreshScreen@@QAEHXZ
?getRefreshDestiny@CRefreshScreen@@QAEPAVCGraphicsObject@@XZ
?getRefreshList@CRefreshScreen@@QAEPAVCXArray@@XZ
?getRefreshScreenInterface@CUnit6@@UAEPAVCRefreshScreen@@XZ
?getResolution@CCommandLine6@@QAE?AVCXSize@@XZ
?getResourcesManager@CUnit6@@UAEPAVCResourcesManager@@XZ
?getResult@CMC_Expression@@UAEPAVCMC_Variable@@XZ
?getRetCode@CUnit6@@QAEHXZ
?getRetPath@CUnit6@@QAEPAVCXArray@@XZ
?getRightOffset@CSimpleFont6@@QAEHPAVCGraphicsObject@@@Z
?getRows@CMC_Database@@QAEHXZ
?getRowsNo@CMC_Database_Runner@@AAEPAVCMC_Variable@@PAVCMC_Object@@PAVCMC_ObjectsContainer@@PAVCXVector@@@Z
?getRunner@CMC_Object@@UAEPAVCMC_Runner@@XZ
?getRunner@CMC_RunnerFactory@@SAPAVCMC_Runner@@H@Z
?getRunningTimers@CMC_Scene@@UAEXPAVCMC_Groupped@@@Z
?getRunningTimers@CMC_Scene_Runner@@AAEPAVCMC_Variable@@PAVCMC_Object@@PAVCMC_ObjectsContainer@@PAVCXVector@@@Z
?getScene@CMC_NetClient@@UAEPAVCMC_ObjectsContainer@@XZ
?getScene@CMC_NetServer@@UAEPAVCMC_ObjectsContainer@@XZ
?getScene@CMC_Object@@UAEPAVCMC_ObjectsContainer@@XZ
?getSecond@CXPair@@QAEPAXXZ
?getSeconds@CMC_System@@QAEHXZ
?getSeconds@CMC_System_Runner@@AAEPAVCMC_Variable@@PAVCMC_Object@@PAVCMC_ObjectsContainer@@PAVCXVector@@@Z
?getSeqTime@CRandomPlayableEntry@@UAEHXZ
?getSequence@CMC_Sequence@@QAEPAVCSequencedPlayable@@XZ
?getServerIfc@CMC_NetServer@@QAEPAVCNetworkServer@@XZ
?getSignalEvent@CMC_Animo@@UAE?AVCXString@@V2@@Z
?getSignalIndex@CMC_Object@@QAEHVCXString@@@Z
?getSingleton@CDXMouse@@SAPAV1@XZ
?getSize@CHashtable@@QAEHXZ
?getSize@CMC_Array@@UAEHXZ
?getSize@CMC_Array_Runner@@AAEPAVCMC_Variable@@PAVCMC_Object@@PAVCMC_ObjectsContainer@@PAVCXVector@@@Z
?getSize@CMC_Groupped_Runner@@AAEPAVCMC_Variable@@PAVCMC_Object@@PAVCMC_ObjectsContainer@@PAVCXVector@@@Z
?getSize@CMC_MultiArray@@UAEHH@Z
?getSize@CMC_MultiArray_Runner@@AAEPAVCMC_Variable@@PAVCMC_Object@@PAVCMC_ObjectsContainer@@PAVCXVector@@@Z
?getSize@CSimpleFont6@@QAEHXZ
?getSize@CStringArray@@UAEHXZ
?getSizeValue@CMProperty@@QAE?AVCXSize@@XZ
?getSlideComps@CMC_Image_Runner@@AAEPAVCMC_Variable@@PAVCMC_Object@@PAVCMC_ObjectsContainer@@PAVCXVector@@@Z
?getSound@CMC_Sound@@QAEPAVCSound4@@XZ
?getSoundManagerIfc@CApplication@@QAEPAVCSoundManager@@XZ
?getState@CSwitchButton@@QAE_NXZ
?getStatus@CPlayable@@UAEHXZ
?getStd@CMC_Button_Runner@@AAEPAVCMC_Variable@@PAVCMC_Object@@PAVCMC_ObjectsContainer@@PAVCXVector@@@Z
?getString@CStringHashCode@@QAE?AVCXString@@XZ
?getStringValue@CMC_Behaviour_Entry@@SA?AVCXString@@PAVCMC_Variable@@@Z
?getStyle@CSimpleFont6@@QAE?AVCXString@@XZ
?getSubFolder@CLanguageOSVer@@AAE?AVCXString@@XZ
?getSubId@CMC_Scene@@QAEHPAV1@@Z
?getSubScenes@CMC_Scene@@QAEPAVCXVector@@XZ
?getSumValue@CMC_Array_Runner@@AAEPAVCMC_Variable@@PAVCMC_Object@@PAVCMC_ObjectsContainer@@PAVCXVector@@@Z
?getSystemTime@CMC_System@@QAEHXZ
?getSystemTime@CMC_System_Runner@@AAEPAVCMC_Variable@@PAVCMC_Object@@PAVCMC_ObjectsContainer@@PAVCXVector@@@Z
?getText@CEditBox6@@QAE?AVCXString@@XZ
?getText@CMC_EditBox_Runner@@AAEPAVCMC_Variable@@PAVCMC_Object@@PAVCMC_ObjectsContainer@@PAVCXVector@@@Z
?getText@CMC_Text@@QAEPAVCMultilineText6@@XZ
?getText@CText6@@UAE?AVCXString@@XZ
?getText@CTextFormatCode@@QAE?AVCXString@@XZ
?getTick@CMC_Timer@@QAEHXZ
?getTimeString@CMC_System@@QAEHXZ
?getTimeString@CMC_System_Runner@@AAEPAVCMC_Variable@@PAVCMC_Object@@PAVCMC_ObjectsContainer@@PAVCXVector@@@Z
?getTmpBehList@CMC_Object@@UAEPAVCXVector@@XZ
?getToken@CStringTokenizer@@AAE?AVCXString@@XZ
?getTotalSize@CMemStorage@@QAEHXZ
?getType@CMC_Object@@QAEHXZ
?getType@CNetMessage@@QAEHXZ
?getType@CPlayable@@UAEHXZ
?getTypeId@CMC_Object@@SAHVCXString@@@Z
?getUnit@CHotSpot@@QAEPAVCUnit6@@XZ
?getUnitName@CUnit6@@QAE?AVCXString@@XZ
?getVJustify@CText6@@QAE?AW4_justify@@XZ
?getValue@CMC_Bool@@QAE_NXZ
?getValue@CMC_Double@@QAENXZ
?getValue@CMC_Integer@@QAEHXZ
?getValue@CMC_String@@QAE?AVCXString@@XZ
?getValue@CMProperty@@QAE?AVCXString@@XZ
?getVariable@CMC_ObjectsContainer@@QAEPAVCMC_Variable@@PAD@Z
?getVariable@CNetVariableMessage@@QAEPAVCMC_Variable@@XZ
?getVariableName@CNetVariableMessage@@QAEPADXZ
?getVariableType@CNetVariableMessage@@QAEHXZ
?getVirtualGraphicsObject@CMC_VirtualGraphicsObject@@QAEPAVCVirtualGraphicsObject@@XZ
?getVolume@CSndStream@@QAEHXZ
?getWAVPath@CApplication@@UAE?AVCXString@@V2@@Z
?getWaitMode@CPlayable@@QAE_NXZ
?getWidth@CDataBuffer2Dim@@UAEHXZ
?getWidth@CGraphicsObject@@UAEHXZ
?getWidth@CMC_Animo_Runner@@AAEPAVCMC_Variable@@PAVCMC_Object@@PAVCMC_ObjectsContainer@@PAVCXVector@@@Z
?getWidth@CMC_Image_Runner@@AAEPAVCMC_Variable@@PAVCMC_Object@@PAVCMC_ObjectsContainer@@PAVCXVector@@@Z
?getWidth@CMC_Text_Runner@@AAEPAVCMC_Variable@@PAVCMC_Object@@PAVCMC_ObjectsContainer@@PAVCXVector@@@Z
?getWidth@CMC_VirtualGraphicsObject_Runner@@AAEPAVCMC_Variable@@PAVCMC_Object@@PAVCMC_ObjectsContainer@@PAVCXVector@@@Z
?getWidth@CTextFormatCode@@QAEHXZ
?getWidth@JPEG@@QAEHXZ
?getWindow@CGraphicsObject@@QAEPAVCWindow@@XZ
?getWindow@CMC_Joystick@@UAEPAVCWindow@@XZ
?getWindow@CMC_ObjectsContainer@@QAEPAVCWindow@@XZ
?getWindow@CUnit6@@UAEPAVCWindow@@XZ
?getYear@CMC_System@@QAEHXZ
?getYear@CMC_System_Runner@@AAEPAVCMC_Variable@@PAVCMC_Object@@PAVCMC_ObjectsContainer@@PAVCXVector@@@Z
?get_bit@CMemStream@@QAEHXZ
?get_bits@CMemStream@@QAEHH@Z
?get_bytes@CMemStream@@QAEXPAXH@Z
?get_char@CMemStream@@QAEEXZ
?get_full_path2@CBigFile@@AAE?AVCXString@@PAU_entry@@@Z
?get_full_path@CBigFile@@AAE?AVCXString@@PAU_entry@@@Z
?get_int@CMemStream@@QAEHXZ
?get_no_entries@CBigFile@@AAEXVCXString@@PAH1@Z
?get_shortint@CMemStream@@QAEFXZ
?get_signed_bits@CMemStream@@QAEHH@Z
?globalTrash@CMC_Behaviour@@0PAVCXVector@@A
?hasMoreTokens@CStringTokenizer@@UAE_NXZ
?hasProperty@CMElement@@QAE_NVCXString@@@Z
?hide@CAnimo6@@UAEXXZ
?hide@CAnimo@@UAEXXZ
?hide@CImage@@UAEXXZ
?hide@CMC_Animo_Runner@@AAEPAVCMC_Variable@@PAVCMC_Object@@PAVCMC_ObjectsContainer@@PAVCXVector@@@Z
?hide@CMC_Canvas_Runner@@AAEPAVCMC_Variable@@PAVCMC_Object@@PAVCMC_ObjectsContainer@@PAVCXVector@@@Z
?hide@CMC_Dialog_Runner@@AAEPAVCMC_Variable@@PAVCMC_Object@@PAVCMC_ObjectsContainer@@PAVCXVector@@@Z
?hide@CMC_Image_Runner@@AAEPAVCMC_Variable@@PAVCMC_Object@@PAVCMC_ObjectsContainer@@PAVCXVector@@@Z
?hide@CMC_Mouse@@QAEXXZ
?hide@CMC_Mouse_Runner@@AAEPAVCMC_Variable@@PAVCMC_Object@@PAVCMC_ObjectsContainer@@PAVCXVector@@@Z
?hide@CMC_Sequence_Runner@@AAEPAVCMC_Variable@@PAVCMC_Object@@PAVCMC_ObjectsContainer@@PAVCXVector@@@Z
?hide@CMC_Text_Runner@@AAEPAVCMC_Variable@@PAVCMC_Object@@PAVCMC_ObjectsContainer@@PAVCXVector@@@Z
?hide@CMC_VirtualGraphicsObject_Runner@@AAEPAVCMC_Variable@@PAVCMC_Object@@PAVCMC_ObjectsContainer@@PAVCXVector@@@Z
?hide@CPlayable@@UAEXXZ
?hide@CTreeSequenceElements@@QAEXVCXString@@@Z
?hide@CXDialog@@UAEXXZ
?iVariablesBoolNo@CMC_VariableFactory@@2HA
?iVariablesDoubleNo@CMC_VariableFactory@@2HA
?iVariablesIntegerNo@CMC_VariableFactory@@2HA
?iVariablesStringNo@CMC_VariableFactory@@2HA
?import@CMC_Class@@AAEXVCXString@@@Z
?import_base@CMC_Class@@AAEXVCXString@@@Z
?inc@CMC_Bool@@UAEXXZ
?inc@CMC_Double@@UAEXXZ
?inc@CMC_Expression@@UAEXXZ
?inc@CMC_Integer@@UAEXXZ
?inc@CMC_String@@UAEXXZ
?inc@CMC_Structure@@UAEXXZ
?inc@CMC_Variable_Runner@@AAEPAVCMC_Variable@@PAVCMC_Object@@PAVCMC_ObjectsContainer@@PAVCXVector@@@Z
?increment@CInteger@@QAEXXZ
?indexOf@CXString@@UAEHV1@H@Z
?init@CKeyboard@@AAEXXZ
?init@CMC_Behaviour@@UAEXXZ
?init@CMC_Class@@UAEXXZ
?init@CMC_Condition@@UAEXXZ
?init@CMC_Database@@UAEXXZ
?init@CMC_Expression@@UAEXXZ
?init@CMC_Object@@UAEXXZ
?init@CMC_Sequence@@UAEXXZ
?init@CMC_Variable@@UAEXXZ
?initDebugger@CMC_Behaviour_Entry@@SAXPAVCWindow@@@Z
?initLanguage@CKeyboard@@QAEXXZ
?initSound@CMC_Sound@@AAEXVCXString@@@Z
?initTrash@CMC_Behaviour@@SAXXZ
?init_buffers@CMemStorage@@AAEXXZ
?init_codecs@CSoundCodec@@SAXXZ
?initialize@CDXMouse@@AAEXXZ
?initialize@CGraphicsObject@@QAEXXZ
?initialize@CHotSpot@@QAEXPAVCWindow@@@Z
?initialize@CMC_Application@@UAE_NPAVCMC_Scene@@@Z
?initialize@CMC_Episode@@UAE_NPAVCMC_Scene@@@Z
?initialize@CMC_Joystick@@AAEXXZ
?initialize@CMC_RunnerFactory@@SAXXZ
?initialize@CMC_Scene@@UAE_NPAV1@@Z
?initialize@CMC_VariableFactory@@SAXXZ
?initialize@CRandomPlayableEntry@@AAEXXZ
?initialize@CUnit6@@UAE_NPAVCMC_Scene@@PAV1@@Z
?initializeBehaviours@CMC_Object@@UAEXPAVCMC_ObjectsContainer@@PAVCMElement@@@Z
?insertAt@CMC_Array@@UAEXHPAVCMC_Variable@@@Z
?insertAt@CMC_Array_Runner@@AAEPAVCMC_Variable@@PAVCMC_Object@@PAVCMC_ObjectsContainer@@PAVCXVector@@@Z
?insertAt@CMC_Database@@QAEXHPAVCMC_Structure@@@Z
?insertAt@CMC_Database_Runner@@AAEPAVCMC_Variable@@PAVCMC_Object@@PAVCMC_ObjectsContainer@@PAVCXVector@@@Z
?insertAt@CMC_Variable_Runner@@AAEPAVCMC_Variable@@PAVCMC_Object@@PAVCMC_ObjectsContainer@@PAVCXVector@@@Z
?insertAt@CResourcesManager@@QAEXPAVCFileResolver@@H@Z
?insertAt@CXArray@@UAEXHPAX@Z
?insertAt@CXVector@@UAEXHPAVCXObject@@@Z
?intPtr@CMC_VariableFactory@@0HA
?invalidate@CMC_Animo_Runner@@AAEPAVCMC_Variable@@PAVCMC_Object@@PAVCMC_ObjectsContainer@@PAVCXVector@@@Z
?invalidate@CMC_Image_Runner@@AAEPAVCMC_Variable@@PAVCMC_Object@@PAVCMC_ObjectsContainer@@PAVCXVector@@@Z
?invalidate@CMC_Scroll@@AAEXXZ
?invalidate@CMC_VirtualGraphicsObject_Runner@@AAEPAVCMC_Variable@@PAVCMC_Object@@PAVCMC_ObjectsContainer@@PAVCXVector@@@Z
?is2Bin@CCommandLine6@@QAE_NXZ
?isActive@CUnit6@@UAE_NXZ
?isActive@CWindow@@QAE_NXZ
?isAnyKeyPressed@CKeyboard@@QAE_NXZ
?isAt@CAnimo6@@QAE_NVCXPoint@@_N@Z
?isAt@CGraphicsObject@@QAE_NVCXPoint@@_N@Z
?isAt@CMC_Animo_Runner@@AAEPAVCMC_Variable@@PAVCMC_Object@@PAVCMC_ObjectsContainer@@PAVCXVector@@@Z
?isAt@CMC_Image_Runner@@AAEPAVCMC_Variable@@PAVCMC_Object@@PAVCMC_ObjectsContainer@@PAVCXVector@@@Z
?isBinary@CMC_Scene@@UAE_NXZ
?isCD@CPath@@UAE_NXZ
?isCheatMode@CCommandLine6@@QAE_NXZ
?isClient@CCommandLine6@@QAE_NXZ
?isClone@CMC_Object@@QAE_NXZ
?isCoded@CTextCoder@@UAE_NXZ
?isConnected@CMC_NetClient@@QAE_NXZ
?isConnected@CMC_NetClient_Runner@@AAEPAVCMC_Variable@@PAVCMC_Object@@PAVCMC_ObjectsContainer@@PAVCXVector@@@Z
?isConnected@CNetworkClient@@QAE_NXZ
?isConnecting@CMC_NetClient@@QAE_NXZ
?isConnecting@CMC_NetClient_Runner@@AAEPAVCMC_Variable@@PAVCMC_Object@@PAVCMC_ObjectsContainer@@PAVCXVector@@@Z
?isConnecting@CNetworkClient@@QAE_NXZ
?isCreateBigFile@CCommandLine6@@QAE_NXZ
?isDebugMode@CCommandLine6@@QAE_NXZ
?isDragging@CUnit6@@QAE_NXZ
?isEnabled@CMC_Behaviour@@QAE_NXZ
?isEnabled@CMC_Keyboard@@QAE_NXZ
?isEnabled@CMC_Keyboard_Runner@@AAEPAVCMC_Variable@@PAVCMC_Object@@PAVCMC_ObjectsContainer@@PAVCXVector@@@Z
?isEnabled@CMC_Timer@@QAE_NXZ
?isForceCNV@CCommandLine6@@QAE_NXZ
?isGFXEnabled@CCommandLine6@@QAE_NXZ
?isHdd@CCommandLine6@@QAE_NXZ
?isHdd@CFile@@SA_NVCXString@@@Z
?isInside@CAnimo@@QAE_NHH_N@Z
?isInside@CGraphicsObject@@QAE_NHH_N@Z
?isInside@CMC_Animo_Runner@@AAEPAVCMC_Variable@@PAVCMC_Object@@PAVCMC_ObjectsContainer@@PAVCXVector@@@Z
?isInside@CMC_Image_Runner@@AAEPAVCMC_Variable@@PAVCMC_Object@@PAVCMC_ObjectsContainer@@PAVCXVector@@@Z
?isInside@CMC_VirtualGraphicsObject_Runner@@AAEPAVCMC_Variable@@PAVCMC_Object@@PAVCMC_ObjectsContainer@@PAVCXVector@@@Z
?isInside@CXRect@@QAE_NV1@@Z
?isInvalidated@CGraphicsObject@@QAE_NXZ
?isKeyDown@CMC_Keyboard_Runner@@AAEPAVCMC_Variable@@PAVCMC_Object@@PAVCMC_ObjectsContainer@@PAVCXVector@@@Z
?isKeyPressed@CKeyboard@@QAE_NVCXString@@@Z
?isLeft@CMC_Joystick_Runner@@AAEPAVCMC_Variable@@PAVCMC_Object@@PAVCMC_ObjectsContainer@@PAVCXVector@@@Z
?isLoaded@CFileResolver@@UAE_NXZ
?isMultifont@CFontCollection@@UAE_NXZ
?isMultifont@CSimpleFont6@@UAE_NXZ
?isMusicEnabled@CCommandLine6@@QAE_NXZ
?isMusicPlaying@CWindow@@QAE_NXZ
?isNear@CGraphicsObject@@UAE_NPAV1@H@Z
?isNear@CGraphicsObject@@UAE_NVCXRect@@H@Z
?isNear@CMC_Animo_Runner@@AAEPAVCMC_Variable@@PAVCMC_Object@@PAVCMC_ObjectsContainer@@PAVCXVector@@@Z
?isNear@CMC_Image_Runner@@AAEPAVCMC_Variable@@PAVCMC_Object@@PAVCMC_ObjectsContainer@@PAVCXVector@@@Z
?isNear@CMC_Text_Runner@@AAEPAVCMC_Variable@@PAVCMC_Object@@PAVCMC_ObjectsContainer@@PAVCXVector@@@Z
?isNear@CMC_VirtualGraphicsObject_Runner@@AAEPAVCMC_Variable@@PAVCMC_Object@@PAVCMC_ObjectsContainer@@PAVCXVector@@@Z
?isNumber@CXString@@QAE_NXZ
?isPageFlippingEnabled@CCommandLine6@@QAE_NXZ
?isParent@CPlayable@@UAE_NXZ
?isPaused@CMC_Animo_Runner@@AAEPAVCMC_Variable@@PAVCMC_Object@@PAVCMC_ObjectsContainer@@PAVCXVector@@@Z
?isPaused@CMC_Scene_Runner@@AAEPAVCMC_Variable@@PAVCMC_Object@@PAVCMC_ObjectsContainer@@PAVCXVector@@@Z
?isPaused@CPlayable@@UAE_NXZ
?isPaused@CWindow@@SA_NXZ
?isPlaying@CAnimo6@@QAE_NPAD@Z
?isPlaying@CAnimo@@UAE_NXZ
?isPlaying@CMC_Animo_Runner@@AAEPAVCMC_Variable@@PAVCMC_Object@@PAVCMC_ObjectsContainer@@PAVCXVector@@@Z
?isPlaying@CMC_Sequence_Runner@@AAEPAVCMC_Variable@@PAVCMC_Object@@PAVCMC_ObjectsContainer@@PAVCXVector@@@Z
?isPlaying@CMC_Sound_Runner@@AAEPAVCMC_Variable@@PAVCMC_Object@@PAVCMC_ObjectsContainer@@PAVCXVector@@@Z
?isPlaying@CPlayable@@UAE_NXZ
?isPlaying@CRandomPlayableEntry@@UAE_NXZ
?isPlaying@CSound4@@UAE_NXZ
?isPlaying@CSpeakingAnimation@@UAE_NXZ
?isPropertyAvailable@CMElement@@QAE_NVCXString@@@Z
?isReference@CMC_Behaviour_Entry@@QAE_NXZ
?isRight@CMC_Joystick_Runner@@AAEPAVCMC_Variable@@PAVCMC_Object@@PAVCMC_ObjectsContainer@@PAVCXVector@@@Z
?isSeparator@CStringTokenizer@@AAE_ND@Z
?isServer@CCommandLine6@@QAE_NXZ
?isSoundEnabled@CCommandLine6@@QAE_NXZ
?isStarted@CMC_NetServer_Runner@@AAEPAVCMC_Variable@@PAVCMC_Object@@PAVCMC_ObjectsContainer@@PAVCXVector@@@Z
?isStarted@CNetworkServer@@QAE_NXZ
?isStill@CMC_Expression@@QAE_NXZ
?isStoring@CXArchive@@QAE_NXZ
?isTemporary@CMC_Object@@QAE_NXZ
?isToCode@CCommandLine6@@QAE_NXZ
?isToDecode@CCommandLine6@@QAE_NXZ
?isToDelete@CXObject@@UAE_NXZ
?isToRemove@CCommandLine6@@QAE_NXZ
?isUpperLetter@CMC_Variable_Runner@@AAEPAVCMC_Variable@@PAVCMC_Object@@PAVCMC_ObjectsContainer@@PAVCXVector@@@Z
?isVMem@CCommandLine6@@QAE_NXZ
?isVMem@CWindow@@QAE_NXZ
?isVisible@CMC_Animo_Runner@@AAEPAVCMC_Variable@@PAVCMC_Object@@PAVCMC_ObjectsContainer@@PAVCXVector@@@Z
?isVisible@CMC_Image_Runner@@AAEPAVCMC_Variable@@PAVCMC_Object@@PAVCMC_ObjectsContainer@@PAVCXVector@@@Z
?isVisible@CMC_VirtualGraphicsObject_Runner@@AAEPAVCMC_Variable@@PAVCMC_Object@@PAVCMC_ObjectsContainer@@PAVCXVector@@@Z
?isVisible@CPlayable@@UAE_NXZ
?isVisible@CSpeakingAnimation@@UAE_NXZ
?isWindowMode@CCommandLine6@@QAE_NXZ
?killTimer@CUnit6@@QAEXH@Z
?lastChar@CXString@@QAEDXZ
?left@CXString@@QAEXH@Z
?left@CXString@@QAEXHPAV1@@Z
?length@CMC_Variable_Runner@@AAEPAVCMC_Variable@@PAVCMC_Object@@PAVCMC_ObjectsContainer@@PAVCXVector@@@Z
?link@CMC_Image_Runner@@AAEPAVCMC_Variable@@PAVCMC_Object@@PAVCMC_ObjectsContainer@@PAVCXVector@@@Z
?list@CFolder@@QAEPAVCXArray@@VCXString@@@Z
?load@CFileResolver@@IAEXXZ
?load@CFont5@@QAE_NVCXString@@@Z
?load@CImage@@UAEHVCXString@@@Z
?load@CMC_Animo@@UAEXVCXString@@_N@Z
?load@CMC_Animo_Runner@@AAEPAVCMC_Variable@@PAVCMC_Object@@PAVCMC_ObjectsContainer@@PAVCXVector@@@Z
?load@CMC_Array@@UAEXVCXString@@@Z
?load@CMC_Array_Runner@@AAEPAVCMC_Variable@@PAVCMC_Object@@PAVCMC_ObjectsContainer@@PAVCXVector@@@Z
?load@CMC_CNVLoader@@UAEXVCXString@@@Z
?load@CMC_CNVLoader_Runner@@AAEPAVCMC_Variable@@PAVCMC_Object@@PAVCMC_ObjectsContainer@@PAVCXVector@@@Z
?load@CMC_Database@@QAEXVCXString@@@Z
?load@CMC_Database_Runner@@AAEPAVCMC_Variable@@PAVCMC_Object@@PAVCMC_ObjectsContainer@@PAVCXVector@@@Z
?load@CMC_Image@@UAEXVCXString@@_N@Z
?load@CMC_Image_Runner@@AAEPAVCMC_Variable@@PAVCMC_Object@@PAVCMC_ObjectsContainer@@PAVCXVector@@@Z
?load@CMC_MultiArray@@UAEXVCXString@@@Z
?load@CMC_MultiArray_Runner@@AAEPAVCMC_Variable@@PAVCMC_Object@@PAVCMC_ObjectsContainer@@PAVCXVector@@@Z
?load@CMC_Sound_Runner@@AAEPAVCMC_Variable@@PAVCMC_Object@@PAVCMC_ObjectsContainer@@PAVCXVector@@@Z
?load@CMC_StructureParser@@IAEPAVCMC_Application@@VCXString@@@Z
?load@CMC_Text_Runner@@AAEPAVCMC_Variable@@PAVCMC_Object@@PAVCMC_ObjectsContainer@@PAVCXVector@@@Z
?load@CMElementsLoader@@SAPAVCMElements@@PAVCTextCoder@@@Z
?load@CMElementsLoader@@SAPAVCMElements@@PAVCWindow@@VCXString@@@Z
?load@CMultimediaSequenceCreator@@SAPAVCPlayable@@PAVCWindow@@VCXString@@PAVCResourcesManager@@PAVCPlayableObserver@@@Z
?load@CSound4@@QAE_NXZ
?load@CTextFileReader@@AAEXPAVCWindow@@PAD@Z
?loadCnv@CMC_Scene@@UAE_NXZ
?loadINI@CMC_Array@@UAEXXZ
?loadINI@CMC_Array_Runner@@AAEPAVCMC_Variable@@PAVCMC_Object@@PAVCMC_ObjectsContainer@@PAVCXVector@@@Z
?loadINI@CMC_MultiArray@@UAEXXZ
?load_entry@CBigFile@@AAEXPAVCXArchive@@PAU_entry@@@Z
?lock@CPattern@@UAEXHH_N@Z
?lockActiveCursor@CMC_Mouse_Runner@@AAEPAVCMC_Variable@@PAVCMC_Object@@PAVCMC_ObjectsContainer@@PAVCXVector@@@Z
?lockActiveCursor@CWindow@@QAEX_N@Z
?log@CFileResolver@@IAEXPAD_N@Z
?log@CXObject@@QAEXPAD_N@Z
?loopStarted@CSndStream@@QAEXXZ
?m_ThreadHandle@CSound4@@2PAXA
?m_ThreadId@CSound4@@2HA
?m_bSoundBufferCreated@CSound4@@2_NA
?m_pDirectSound@CSound4@@2PAUIDirectSound8@@A
?m_pDirectSoundPrimaryBuffer@CSound4@@2PAUIDirectSoundBuffer@@A
?m_pWindow@CHotSpot@@1PAVCWindow@@A
?map@CMC_Structure@@UAEXPAV1@@Z
?maxPriority@CHotSpot@@1HA
?maxRegions@CCanvas@@0HA
?maxa@CMC_Variable_Runner@@AAEPAVCMC_Variable@@PAVCMC_Object@@PAVCMC_ObjectsContainer@@PAVCXVector@@@Z
?maxd@CMC_Array_Runner@@AAEPAVCMC_Variable@@PAVCMC_Object@@PAVCMC_ObjectsContainer@@PAVCXVector@@@Z
?mergeAlpha@CGraphicsObject@@QAEXVCXPoint@@PAV1@@Z
?mergeAlpha@CMC_Animo_Runner@@AAEPAVCMC_Variable@@PAVCMC_Object@@PAVCMC_ObjectsContainer@@PAVCXVector@@@Z
?mergeAlpha@CMC_Image_Runner@@AAEPAVCMC_Variable@@PAVCMC_Object@@PAVCMC_ObjectsContainer@@PAVCXVector@@@Z
?mid@CXString@@QAEXHH@Z
?mid@CXString@@QAEXHHPAV1@@Z
?minPriority@CHotSpot@@1HA
?mina@CMC_Variable_Runner@@AAEPAVCMC_Variable@@PAVCMC_Object@@PAVCMC_ObjectsContainer@@PAVCXVector@@@Z
?mind@CMC_Array_Runner@@AAEPAVCMC_Variable@@PAVCMC_Object@@PAVCMC_ObjectsContainer@@PAVCXVector@@@Z
?mod@CMC_Variable_Runner@@AAEPAVCMC_Variable@@PAVCMC_Object@@PAVCMC_ObjectsContainer@@PAVCXVector@@@Z
?modat@CMC_Array@@UAEXHPAVCMC_Variable@@@Z
?modat@CMC_Array_Runner@@AAEPAVCMC_Variable@@PAVCMC_Object@@PAVCMC_ObjectsContainer@@PAVCXVector@@@Z
?monitorCollision@CMC_Animo_Runner@@AAEPAVCMC_Variable@@PAVCMC_Object@@PAVCMC_ObjectsContainer@@PAVCXVector@@@Z
?monitorCollision@CMC_Image_Runner@@AAEPAVCMC_Variable@@PAVCMC_Object@@PAVCMC_ObjectsContainer@@PAVCXVector@@@Z
?monitorCollision@CMC_VirtualGraphicsObject_Runner@@AAEPAVCMC_Variable@@PAVCMC_Object@@PAVCMC_ObjectsContainer@@PAVCXVector@@@Z
?monitorCollisions@CMC_Scene@@UAEXPAVCGraphicsObject@@_NPAVCCollisionObserver@@@Z
?mouse_release@CMC_Mouse_Runner@@AAEPAVCMC_Variable@@PAVCMC_Object@@PAVCMC_ObjectsContainer@@PAVCXVector@@@Z
?move@CAnimo@@UAEXHH@Z
?move@CEditBox6@@UAEXVCXPoint@@@Z
?move@CMC_Animo_Runner@@AAEPAVCMC_Variable@@PAVCMC_Object@@PAVCMC_ObjectsContainer@@PAVCXVector@@@Z
?move@CMC_Canvas_Runner@@AAEPAVCMC_Variable@@PAVCMC_Object@@PAVCMC_ObjectsContainer@@PAVCXVector@@@Z
?move@CMC_EditBox_Runner@@AAEPAVCMC_Variable@@PAVCMC_Object@@PAVCMC_ObjectsContainer@@PAVCXVector@@@Z
?move@CMC_Image_Runner@@AAEPAVCMC_Variable@@PAVCMC_Object@@PAVCMC_ObjectsContainer@@PAVCXVector@@@Z
?move@CMC_Mouse@@QAEXVCXPoint@@@Z
?move@CMC_Mouse_Runner@@AAEPAVCMC_Variable@@PAVCMC_Object@@PAVCMC_ObjectsContainer@@PAVCXVector@@@Z
?move@CMC_Pattern_Runner@@AAEPAVCMC_Variable@@PAVCMC_Object@@PAVCMC_ObjectsContainer@@PAVCXVector@@@Z
?move@CMC_Text_Runner@@AAEPAVCMC_Variable@@PAVCMC_Object@@PAVCMC_ObjectsContainer@@PAVCXVector@@@Z
?move@CMC_VirtualGraphicsObject_Runner@@AAEPAVCMC_Variable@@PAVCMC_Object@@PAVCMC_ObjectsContainer@@PAVCXVector@@@Z
?move@CMemStream@@QAEXH@Z
?move@CPattern@@QAEXHH@Z
?move@CPlayable@@UAEXHH@Z
?move@CPlayable@@UAEXVCXPoint@@@Z
?move@CSequencedPlayable@@UAEXHH@Z
?move@CSpeakingAnimation@@UAEXHH@Z
?move@CXDialog@@UAEXHH@Z
?moveBkg@CMC_CanvasObserver_Runner@@AAEPAVCMC_Variable@@PAVCMC_Object@@PAVCMC_ObjectsContainer@@PAVCXVector@@@Z
?moveDown@CPattern@@UAEXHHH@Z
?moveViewport@CMC_Scroll@@QAEXHH@Z
?moveViewport@CMC_Scroll_Runner@@AAEPAVCMC_Variable@@PAVCMC_Object@@PAVCMC_ObjectsContainer@@PAVCXVector@@@Z
?msgBox@CMC_Runner@@IAEPAVCMC_Variable@@PAVCMC_Object@@PAVCMC_ObjectsContainer@@PAVCXVector@@@Z
?mul@CMC_Array@@UAEXPAVCMC_Variable@@@Z
?mul@CMC_Array_Runner@@AAEPAVCMC_Variable@@PAVCMC_Object@@PAVCMC_ObjectsContainer@@PAVCXVector@@@Z
?mul@CMC_Variable_Runner@@AAEPAVCMC_Variable@@PAVCMC_Object@@PAVCMC_ObjectsContainer@@PAVCXVector@@@Z
?mul@CXSize@@QAEHXZ
?mula@CMC_Array@@UAEXPAVCMC_String@@HH@Z
?mula@CMC_Array_Runner@@AAEPAVCMC_Variable@@PAVCMC_Object@@PAVCMC_ObjectsContainer@@PAVCXVector@@@Z
?mulat@CMC_Array@@UAEXHPAVCMC_Variable@@@Z
?mulat@CMC_Array_Runner@@AAEPAVCMC_Variable@@PAVCMC_Object@@PAVCMC_ObjectsContainer@@PAVCXVector@@@Z
?nPlay@CMC_Animo_Runner@@AAEPAVCMC_Variable@@PAVCMC_Object@@PAVCMC_ObjectsContainer@@PAVCXVector@@@Z
?netrestore@CMC_Bool@@UAEXPAX@Z
?netrestore@CMC_Double@@UAEXPAX@Z
?netrestore@CMC_Expression@@UAEXPAX@Z
?netrestore@CMC_Integer@@UAEXPAX@Z
?netrestore@CMC_String@@UAEXPAX@Z
?netrestore@CMC_Structure@@UAEXPAX@Z
?netrestore@CMC_VariableFactory@@SAPAVCMC_Variable@@PAX@Z
?netstore@CMC_Bool@@UAEXPAX@Z
?netstore@CMC_Double@@UAEXPAX@Z
?netstore@CMC_Expression@@UAEXPAX@Z
?netstore@CMC_Integer@@UAEXPAX@Z
?netstore@CMC_String@@UAEXPAX@Z
?netstore@CMC_Structure@@UAEXPAX@Z
?newInstance@CMC_Class@@QAEPAV1@VCXString@@@Z
?next@CAnimo@@UAEHXZ
?next@CMC_Array@@UAEPAVCMC_Variable@@H@Z
?next@CMC_Array_Runner@@AAEPAVCMC_Variable@@PAVCMC_Object@@PAVCMC_ObjectsContainer@@PAVCXVector@@@Z
?next@CMC_Database@@QAEXXZ
?next@CMC_Database_Runner@@AAEPAVCMC_Variable@@PAVCMC_Object@@PAVCMC_ObjectsContainer@@PAVCXVector@@@Z
?next@CMC_Episode@@QAEXXZ
?next@CMC_Episode_Runner@@AAEPAVCMC_Variable@@PAVCMC_Object@@PAVCMC_ObjectsContainer@@PAVCXVector@@@Z
?next@CMC_Groupped@@UAEPAVCMC_Object@@H@Z
?next@CMC_Groupped_Runner@@AAEPAVCMC_Variable@@PAVCMC_Object@@PAVCMC_ObjectsContainer@@PAVCXVector@@@Z
?next@CPlayable@@UAEHXZ
?next@CSequencedPlayable@@UAEHXZ
?next@CValidationQuene@@QAEPAVCValidationElement@@XZ
?nextEditBox@CUnit6@@UAEXXZ
?nextFrame@CMC_Animo_Runner@@AAEPAVCMC_Variable@@PAVCMC_Object@@PAVCMC_ObjectsContainer@@PAVCXVector@@@Z
?nextLine@CDataBuffer2Dim@@UAEXXZ
?nextToken@CStringTokenizer@@UAE?AVCXString@@XZ
?not@CMC_Variable_Runner@@AAEPAVCMC_Variable@@PAVCMC_Object@@PAVCMC_ObjectsContainer@@PAVCXVector@@@Z
?notify@CCollisionInspector@@EAEXHPAVCGraphicsObject@@0@Z
?notify@CEditBox6@@QAEXH@Z
?notify@CPlayable@@UAE_NH@Z
?notify@CRandomPlayable@@QAE_NPAVCRandomPlayableEntry@@_N@Z
?notify@CRefreshScreen@@QAEXH@Z
?notifyInvalidate@CGraphicsObject@@UAEXPAVCXRect@@@Z
?notifyMessageReceive@CXObject@@UAEXPAVCMessage@@@Z
?onAction@CButton@@UAEXVCXPoint@@@Z
?onAction@CControl@@UAEXVCXPoint@@@Z
?onAction@CSwitchButton@@UAEXVCXPoint@@@Z
?onCanvasRefreshed@CUnit6@@UAEXXZ
?onChange@CMC_Variable@@UAEX_N@Z
?onChanged@CEditBoxNotifier@@UAEXPAVCEditBox6@@@Z
?onChanged@CMC_Array@@AAEXH@Z
?onChanged@CMC_EditBox@@UAEXPAVCEditBox6@@@Z
?onChar@CEditBox6@@UAEXE@Z
?onChar@CKeyListener@@UAEXE@Z
?onChar@CKeyboard@@QAEXH@Z
?onChar@CMC_Keyboard@@UAEXE@Z
?onChar@CUnit6@@UAEXE@Z
?onClick@CControl@@UAEHVCXPoint@@@Z
?onClick@CEditBox6@@UAE_NVCXPoint@@@Z
?onClick@CMC_Animo@@AAEXXZ
?onClick@CMC_Animo@@UAE_NHVCXPoint@@@Z
?onClick@CMC_Canvas@@UAE_NHVCXPoint@@@Z
?onClick@CMC_Image@@UAE_NHVCXPoint@@@Z
?onClick@CMC_Mouse@@UAE_NHVCXPoint@@@Z
?onClick@CMC_Pattern@@UAE_NHVCXPoint@@@Z
?onClick@CMC_VirtualGraphicsObject@@UAE_NHVCXPoint@@@Z
?onClick@CMouseListener@@UAE_NHVCXPoint@@@Z
?onClick@CMouseListener@@UAE_NVCXPoint@@@Z
?onClick@CUnit6@@UAE_NVCXPoint@@@Z
?onCollision@CMC_Animo@@UAEXPAVCGraphicsObject@@0@Z
?onCollision@CMC_Image@@UAEXPAVCGraphicsObject@@0@Z
?onCollision@CMC_VirtualGraphicsObject@@UAEXPAVCGraphicsObject@@0@Z
?onCollisionFinished@CMC_Animo@@UAEXPAVCGraphicsObject@@0@Z
?onCollisionFinished@CMC_Image@@UAEXPAVCGraphicsObject@@0@Z
?onCollisionFinished@CMC_VirtualGraphicsObject@@UAEXPAVCGraphicsObject@@0@Z
?onConnected@CMC_NetClient@@UAEXVCXString@@@Z
?onConnected@CNetClientListener@@UAEXVCXString@@@Z
?onConnectionClosed@CMC_NetClient@@UAEXXZ
?onConnectionClosed@CNetClientListener@@UAEXXZ
?onControlAction@CControlNotifier@@UAEXPAVCControl@@VCXPoint@@@Z
?onControlAction@CEditBox6@@UAEXPAVCControl@@VCXPoint@@@Z
?onControlAction@CMC_Button@@UAEXPAVCControl@@VCXPoint@@@Z
?onControlAction@CXDialog@@UAEXPAVCControl@@VCXPoint@@@Z
?onControlClicked@CControlNotifier@@UAEXPAVCControl@@VCXPoint@@@Z
?onControlClicked@CMC_Button@@UAEXPAVCControl@@VCXPoint@@@Z
?onControlFocusOff@CControlNotifier@@UAEXPAVCControl@@VCXPoint@@@Z
?onControlFocusOff@CMC_Button@@UAEXPAVCControl@@VCXPoint@@@Z
?onControlFocusOn@CControlNotifier@@UAEXPAVCControl@@VCXPoint@@@Z
?onControlFocusOn@CMC_Button@@UAEXPAVCControl@@VCXPoint@@@Z
?onControlOnMove@CControlNotifier@@UAEXPAVCControl@@VCXPoint@@@Z
?onControlOnMove@CMC_Button@@UAEXPAVCControl@@VCXPoint@@@Z
?onControlPopup@CControlNotifier@@UAEXPAVCControl@@VCXPoint@@@Z
?onControlPopup@CMC_Button@@UAEXPAVCControl@@VCXPoint@@@Z
?onControlReleased@CControlNotifier@@UAEXPAVCControl@@VCXPoint@@@Z
?onControlReleased@CMC_Button@@UAEXPAVCControl@@VCXPoint@@@Z
?onCreatePlayer@CNetworkServer@@QAEXPAX@Z
?onDblClick@CMC_Mouse@@UAE_NVCXPoint@@@Z
?onDblClick@CMouseListener@@UAE_NVCXPoint@@@Z
?onDestroy@CCanvas@@UAEXPAVCGraphicsObject@@@Z
?onDestroy@CGraphicsObject@@UAEXPAV1@@Z
?onDestroy@CPattern@@UAEXPAVCGraphicsObject@@@Z
?onDestroyPlayer@CMC_NetServer@@UAEXPAVCNetPlayerInfo@@@Z
?onDestroyPlayer@CNetServerListener@@UAEXPAVCNetPlayerInfo@@@Z
?onDestroyPlayer@CNetworkServer@@QAEXPAX@Z
?onDragging@CControl@@UAEXVCXPoint@@@Z
?onDragging@CControlNotifier@@UAEXPAVCControl@@VCXPoint@@@Z
?onDragging@CMC_Button@@UAEXPAVCControl@@VCXPoint@@@Z
?onDragging@CUnit6@@UAE_NVCXPoint@@@Z
?onDragging@CXDialog@@UAEXPAVCControl@@VCXPoint@@@Z
?onEndDragging@CControl@@UAEXVCXPoint@@@Z
?onEndDragging@CControlNotifier@@UAEXPAVCControl@@VCXPoint@@@Z
?onEndDragging@CMC_Button@@UAEXPAVCControl@@VCXPoint@@@Z
?onEndDragging@CUnit6@@UAE_NVCXPoint@@@Z
?onEndDragging@CXDialog@@UAEXPAVCControl@@VCXPoint@@@Z
?onEnter@CEditBoxNotifier@@UAEXPAVCEditBox6@@@Z
?onEnter@CMC_EditBox@@UAEXPAVCEditBox6@@@Z
?onEsc@CEditBoxNotifier@@UAEXPAVCEditBox6@@@Z
?onEsc@CMC_EditBox@@UAEXPAVCEditBox6@@@Z
?onFinished@CPlayable@@UAEXXZ
?onFocusOff@CControl@@UAEHVCXPoint@@@Z
?onFocusOff@CEditBoxNotifier@@UAEXPAVCEditBox6@@@Z
?onFocusOff@CMC_Animo@@AAEXXZ
?onFocusOff@CMC_CanvasObserver@@UAEXXZ
?onFocusOff@CMC_EditBox@@UAEXPAVCEditBox6@@@Z
?onFocusOff@CRefreshScreen@@UAEXXZ
?onFocusOn@CControl@@UAEHVCXPoint@@@Z
?onFocusOn@CEditBoxNotifier@@UAEXPAVCEditBox6@@@Z
?onFocusOn@CMC_CanvasObserver@@UAEXXZ
?onFocusOn@CMC_EditBox@@UAEXPAVCEditBox6@@@Z
?onFocusOn@CRefreshScreen@@UAEXXZ
?onFoncusOn@CMC_Animo@@AAEXXZ
?onHostClosed@CNetworkClient@@QAEXPAU_DPNMSG_TERMINATE_SESSION@@@Z
?onHostResponse@CNetworkClient@@QAEXPAU_DPNMSG_ENUM_HOSTS_RESPONSE@@@Z
?onInit@CMC_Scene@@UAEXXZ
?onInitialUpdate@CMC_CanvasObserver@@UAEXXZ
?onInitialUpdate@CUnit6@@UAE_NXZ
?onInvalidate@CCanvas@@UAEXPAVCGraphicsObject@@PAVCXRect@@@Z
?onInvalidate@CGraphicsObject@@UAEXPAV1@PAVCXRect@@@Z
?onInvalidate@CPattern@@UAEXPAVCGraphicsObject@@PAVCXRect@@@Z
?onKeyDown@CButton@@UAEXH@Z
?onKeyDown@CEditBox6@@UAEXH@Z
?onKeyDown@CKeyListener@@UAEXH@Z
?onKeyDown@CMC_Keyboard@@UAEXH@Z
?onKeyDown@CUnit6@@UAEXH@Z
?onKeyUp@CKeyListener@@UAEXH@Z
?onKeyUp@CMC_Keyboard@@UAEXH@Z
?onKeyUp@CUnit6@@UAEXH@Z
?onLooseFocus@CMouseListener@@UAEXXZ
?onMessage@CMC_NetClient@@UAEXPAVCNetMessage@@@Z
?onMessage@CMC_NetServer@@UAEXPAVCNetMessage@@@Z
?onMessage@CNetClientListener@@UAEXPAVCNetMessage@@@Z
?onMessage@CNetServerListener@@UAEXPAVCNetMessage@@@Z
?onMouseMove@CControl@@UAEHVCXPoint@@@Z
?onMouseMove@CMC_Animo@@UAE_NVCXPoint@@@Z
?onMouseMove@CMC_Canvas@@UAE_NVCXPoint@@@Z
?onMouseMove@CMC_Image@@UAE_NVCXPoint@@@Z
?onMouseMove@CMC_Mouse@@UAE_NVCXPoint@@@Z
?onMouseMove@CMC_Pattern@@UAE_NVCXPoint@@@Z
?onMouseMove@CMC_VirtualGraphicsObject@@UAE_NVCXPoint@@@Z
?onMouseMove@CMouseListener@@UAE_NVCXPoint@@@Z
?onMouseMove@CUnit6@@UAE_NVCXPoint@@@Z
?onNetChange@CMC_Variable@@UAEXPAV1@@Z
?onNewPlayer@CMC_NetServer@@UAEXPAVCNetPlayerInfo@@@Z
?onNewPlayer@CNetServerListener@@UAEXPAVCNetPlayerInfo@@@Z
?onNotify@CUnit6@@UAEXPAVCControl@@@Z
?onPlayableFinished@CMC_Animo@@UAE_NPAVCPlayable@@@Z
?onPlayableFinished@CMC_Sequence@@UAE_NPAVCPlayable@@@Z
?onPlayableFinished@CMC_Sound@@UAE_NPAVCPlayable@@@Z
?onPlayableFinished@CPlayable@@UAE_NPAV1@@Z
?onPlayableFinished@CPlayableObserver@@UAE_NPAVCPlayable@@@Z
?onPlayableFinished@CRandomPlayableEntry@@UAE_NPAVCPlayable@@@Z
?onPlayableFinished@CSequencedPlayable@@UAE_NPAVCPlayable@@@Z
?onPlayableFinished@CSpeakingAnimation@@UAE_NPAVCPlayable@@@Z
?onPlayableResumed@CMC_Sound@@UAE_NPAVCPlayable@@@Z
?onPlayableResumed@CPlayableObserver@@UAE_NPAVCPlayable@@@Z
?onPlayableStarted@CMC_Animo@@UAE_NPAVCPlayable@@@Z
?onPlayableStarted@CMC_Sequence@@UAE_NPAVCPlayable@@@Z
?onPlayableStarted@CMC_Sound@@UAE_NPAVCPlayable@@@Z
?onPlayableStarted@CPlayableObserver@@UAE_NPAVCPlayable@@@Z
?onPlayableTick@CMC_Animo@@UAE_NPAVCPlayable@@@Z
?onPlayableTick@CPlayableObserver@@UAE_NPAVCPlayable@@@Z
?onPositionChanged@CCollisionInspector@@UAEXPAVCGraphicsObject@@@Z
?onRClick@CControl@@UAEHVCXPoint@@@Z
?onRandomPlayableFinished@CRandomPlayableNotifier@@UAE_NPAVCPlayable@@H@Z
?onRandomPlayableStarted@CRandomPlayableNotifier@@UAE_NPAVCPlayable@@H@Z
?onReceived@CNetworkClient@@QAEXPAU_DPNMSG_RECEIVE@@@Z
?onRelease@CControl@@UAEHVCXPoint@@@Z
?onRelease@CMC_Animo@@UAE_NHVCXPoint@@@Z
?onRelease@CMC_Canvas@@UAE_NHVCXPoint@@@Z
?onRelease@CMC_Image@@UAE_NHVCXPoint@@@Z
?onRelease@CMC_Mouse@@UAE_NHVCXPoint@@@Z
?onRelease@CMC_Pattern@@UAE_NHVCXPoint@@@Z
?onRelease@CMC_VirtualGraphicsObject@@UAE_NHVCXPoint@@@Z
?onRelease@CMouseListener@@UAE_NHVCXPoint@@@Z
?onRelease@CMouseListener@@UAE_NVCXPoint@@@Z
?onRelease@CUnit6@@UAE_NVCXPoint@@@Z
?onSetFocus@CMouseListener@@UAEXXZ
?onSignal@CMC_Object@@UAE_NVCXString@@@Z
?onSignal@CMC_Object@@UAE_NVCXString@@PAVCXArray@@@Z
?onStartDragging@CControl@@UAEXVCXPoint@@@Z
?onStartDragging@CControlNotifier@@UAEXPAVCControl@@VCXPoint@@@Z
?onStartDragging@CMC_Button@@UAEXPAVCControl@@VCXPoint@@@Z
?onStartDragging@CUnit6@@UAE_NPAVCGraphicsObject@@VCXPoint@@PAX@Z
?onStartDragging@CXDialog@@UAEXPAVCControl@@VCXPoint@@@Z
?onStarted@CPlayable@@UAEXXZ
?onTimer@CEditBox6@@UAEXH@Z
?onTimer@CMC_Behaviour@@UAEXH@Z
?onTimer@CMC_Timer@@UAEXH@Z
?onTimer@CRandomPlayable@@UAEXH@Z
?onTimer@CTimerNotificator@@UAEXH@Z
?onTimer@CUnit6@@UAEXH@Z
?onUpdate@CMC_CanvasObserver@@UAEXXZ
?onUpdated@CMC_CanvasObserver@@UAEXXZ
?open@CBigFile@@AAE_NVCXString@@@Z
?openBigFile@CFile@@SAXVCXString@@@Z
?or@CMC_Variable_Runner@@AAEPAVCMC_Variable@@PAVCMC_Object@@PAVCMC_ObjectsContainer@@PAVCXVector@@@Z
?outline@CGraphicsObject@@QAEXGH@Z
?pAnimoRunner@CMC_RunnerFactory@@0PAVCMC_Runner@@A
?pAppRunner@CMC_RunnerFactory@@0PAVCMC_Runner@@A
?pArrayRunner@CMC_RunnerFactory@@0PAVCMC_Runner@@A
?pBehaviourRunner@CMC_RunnerFactory@@0PAVCMC_Runner@@A
?pButtonRunner@CMC_RunnerFactory@@0PAVCMC_Runner@@A
?pCNVLoaderRunner@CMC_RunnerFactory@@0PAVCMC_Runner@@A
?pCORunner@CMC_RunnerFactory@@0PAVCMC_Runner@@A
?pCanvasRunner@CMC_RunnerFactory@@0PAVCMC_Runner@@A
?pClassRunner@CMC_RunnerFactory@@0PAVCMC_Runner@@A
?pConditionRunner@CMC_RunnerFactory@@0PAVCMC_Runner@@A
?pDatabaseRunner@CMC_RunnerFactory@@0PAVCMC_Runner@@A
?pDialogRunner@CMC_RunnerFactory@@0PAVCMC_Runner@@A
?pDummyRunner@CMC_RunnerFactory@@0PAVCMC_Runner@@A
?pEditBoxRunner@CMC_RunnerFactory@@0PAVCMC_Runner@@A
?pEpisodeRunner@CMC_RunnerFactory@@0PAVCMC_Runner@@A
?pFilterRunner@CMC_RunnerFactory@@0PAVCMC_Runner@@A
?pFontRunner@CMC_RunnerFactory@@0PAVCMC_Runner@@A
?pGroupRunner@CMC_RunnerFactory@@0PAVCMC_Runner@@A
?pHSList@CHotSpot@@0PAVCXVector@@A
?pImageRunner@CMC_RunnerFactory@@0PAVCMC_Runner@@A
?pInstance@CNetworkServer@@0PAV1@A
?pJoystickRunner@CMC_RunnerFactory@@0PAVCMC_Runner@@A
?pKeyboardRunner@CMC_RunnerFactory@@0PAVCMC_Runner@@A
?pMouseRunner@CMC_RunnerFactory@@0PAVCMC_Runner@@A
?pMovieRunner@CMC_RunnerFactory@@0PAVCMC_Runner@@A
?pMultiArrayRunner@CMC_RunnerFactory@@0PAVCMC_Runner@@A
?pNetClientRunner@CMC_RunnerFactory@@0PAVCMC_Runner@@A
?pNetServerRunner@CMC_RunnerFactory@@0PAVCMC_Runner@@A
?pPathRunner@CMC_RunnerFactory@@0PAVCMC_Runner@@A
?pPatternRunner@CMC_RunnerFactory@@0PAVCMC_Runner@@A
?pQueneRunner@CMC_RunnerFactory@@0PAVCMC_Runner@@A
?pRandRunner@CMC_RunnerFactory@@0PAVCMC_Runner@@A
?pRunner@CMC_Joystick@@0PAVCMC_Joystick_Runner@@A
?pSceneRunner@CMC_RunnerFactory@@0PAVCMC_Runner@@A
?pScrollRunner@CMC_RunnerFactory@@0PAVCMC_Runner@@A
?pSequenceRunner@CMC_RunnerFactory@@0PAVCMC_Runner@@A
?pSoundRunner@CMC_RunnerFactory@@0PAVCMC_Runner@@A
?pStaticFilterRunner@CMC_RunnerFactory@@0PAVCMC_Runner@@A
?pStructureRunner@CMC_RunnerFactory@@0PAVCMC_Runner@@A
?pSystemRunner@CMC_RunnerFactory@@0PAVCMC_Runner@@A
?pTextRunner@CMC_RunnerFactory@@0PAVCMC_Runner@@A
?pTimerRunner@CMC_RunnerFactory@@0PAVCMC_Runner@@A
?pVGORunner@CMC_RunnerFactory@@0PAVCMC_Runner@@A
?pVariableRunner@CMC_RunnerFactory@@0PAVCMC_Runner@@A
?pVectorRunner@CMC_RunnerFactory@@0PAVCMC_Runner@@A
?pack@CAnimo6@@UAEX_N@Z
?pack@CGraphicsObject@@UAEX_N@Z
?parse@CCommandLine6@@AAEXXZ
?parse@CInteger@@QAEXVCXString@@@Z
?parseText@CText6@@IAEXXZ
?pause@CAnimationManager@@UAEXXZ
?pause@CAnimo@@UAEXXZ
?pause@CImage@@UAEXXZ
?pause@CMC_Animo_Runner@@AAEPAVCMC_Variable@@PAVCMC_Object@@PAVCMC_ObjectsContainer@@PAVCXVector@@@Z
?pause@CMC_Scene_Runner@@AAEPAVCMC_Variable@@PAVCMC_Object@@PAVCMC_ObjectsContainer@@PAVCXVector@@@Z
?pause@CMC_Sequence_Runner@@AAEPAVCMC_Variable@@PAVCMC_Object@@PAVCMC_ObjectsContainer@@PAVCXVector@@@Z
?pause@CMC_Sound_Runner@@AAEPAVCMC_Variable@@PAVCMC_Object@@PAVCMC_ObjectsContainer@@PAVCXVector@@@Z
?pause@CMC_Timer@@QAEXXZ
?pause@CSequencedPlayable@@UAEXXZ
?pause@CSound4@@UAEXXZ
?pause@CSoundManager@@UAEXXZ
?pause@CSpeakingAnimation@@UAEXXZ
?pause@CWindow@@SAXXZ
?pause@CXTimer@@QAEXXZ
?paused@CWindow@@1_NA
?play@CAnimo@@UAEXXZ
?play@CImage@@UAEXXZ
?play@CMC_Animo_Runner@@AAEPAVCMC_Variable@@PAVCMC_Object@@PAVCMC_ObjectsContainer@@PAVCXVector@@@Z
?play@CMC_Sequence_Runner@@AAEPAVCMC_Variable@@PAVCMC_Object@@PAVCMC_ObjectsContainer@@PAVCXVector@@@Z
?play@CMC_Sound_Runner@@AAEPAVCMC_Variable@@PAVCMC_Object@@PAVCMC_ObjectsContainer@@PAVCXVector@@@Z
?play@CPlayable@@UAEXVCXString@@@Z
?play@CSequencedPlayable@@UAEXXZ
?play@CSound4@@UAEXXZ
?play@CSoundManager@@QAEXPAVCSound4@@@Z
?play@CSpeakingAnimation@@UAEXXZ
?playOnOf@CSpeakingAnimation@@AAEXXZ
?playRand@CMC_Animo_Runner@@AAEPAVCMC_Variable@@PAVCMC_Object@@PAVCMC_ObjectsContainer@@PAVCXVector@@@Z
?playReverse@CAnimo@@UAEXVCXString@@H@Z
?playReverse@CMC_Animo_Runner@@AAEPAVCMC_Variable@@PAVCMC_Object@@PAVCMC_ObjectsContainer@@PAVCXVector@@@Z
?pop@CFifoQuene@@UAEPAXXZ
?pop@CLifoQuene@@UAEPAXXZ
?pop@CXFifoQuene@@UAEPAVCXObject@@XZ
?pop@CXLifoQuene@@UAEPAVCXObject@@XZ
?power@CMC_Variable_Runner@@AAEPAVCMC_Variable@@PAVCMC_Object@@PAVCMC_ObjectsContainer@@PAVCXVector@@@Z
?preinitializeApplication@CApplication@@UAEXXZ
?prepareMthHashSet@CMC_Animo_Runner@@UAEXXZ
?prepareMthHashSet@CMC_Application_Runner@@UAEXXZ
?prepareMthHashSet@CMC_Array_Runner@@UAEXXZ
?prepareMthHashSet@CMC_BasicCondition_Runner@@UAEXXZ
?prepareMthHashSet@CMC_Behaviour_Runner@@UAEXXZ
?prepareMthHashSet@CMC_Button_Runner@@UAEXXZ
?prepareMthHashSet@CMC_CNVLoader_Runner@@UAEXXZ
?prepareMthHashSet@CMC_CanvasObserver_Runner@@UAEXXZ
?prepareMthHashSet@CMC_Canvas_Runner@@UAEXXZ
?prepareMthHashSet@CMC_Class_Runner@@UAEXXZ
?prepareMthHashSet@CMC_Database_Runner@@UAEXXZ
?prepareMthHashSet@CMC_Dialog_Runner@@UAEXXZ
?prepareMthHashSet@CMC_EditBox_Runner@@UAEXXZ
?prepareMthHashSet@CMC_Episode_Runner@@UAEXXZ
?prepareMthHashSet@CMC_Font_Runner@@UAEXXZ
?prepareMthHashSet@CMC_Groupped_Runner@@UAEXXZ
?prepareMthHashSet@CMC_Image_Runner@@UAEXXZ
?prepareMthHashSet@CMC_Joystick_Runner@@UAEXXZ
?prepareMthHashSet@CMC_Keyboard_Runner@@UAEXXZ
?prepareMthHashSet@CMC_Mouse_Runner@@UAEXXZ
?prepareMthHashSet@CMC_MultiArray_Runner@@UAEXXZ
?prepareMthHashSet@CMC_NetClient_Runner@@UAEXXZ
?prepareMthHashSet@CMC_NetServer_Runner@@UAEXXZ
?prepareMthHashSet@CMC_Pattern_Runner@@UAEXXZ
?prepareMthHashSet@CMC_Rand_Runner@@UAEXXZ
?prepareMthHashSet@CMC_Runner@@UAEXXZ
?prepareMthHashSet@CMC_Scene_Runner@@UAEXXZ
?prepareMthHashSet@CMC_Scroll_Runner@@UAEXXZ
?prepareMthHashSet@CMC_Sequence_Runner@@UAEXXZ
?prepareMthHashSet@CMC_Sound_Runner@@UAEXXZ
?prepareMthHashSet@CMC_Structure_Runner@@UAEXXZ
?prepareMthHashSet@CMC_System_Runner@@UAEXXZ
?prepareMthHashSet@CMC_Text_Runner@@UAEXXZ
?prepareMthHashSet@CMC_Timer_Runner@@UAEXXZ
?prepareMthHashSet@CMC_Variable_Runner@@UAEXXZ
?prepareMthHashSet@CMC_VirtualGraphicsObject_Runner@@UAEXXZ
?prepareTOC@CBigFile@@AAEPAU_rootentry@@VCXString@@@Z
?prev@CMC_Array@@UAEPAVCMC_Variable@@H@Z
?prev@CMC_Array_Runner@@AAEPAVCMC_Variable@@PAVCMC_Object@@PAVCMC_ObjectsContainer@@PAVCXVector@@@Z
?prev@CMC_Database@@QAEXXZ
?prev@CMC_Database_Runner@@AAEPAVCMC_Variable@@PAVCMC_Object@@PAVCMC_ObjectsContainer@@PAVCXVector@@@Z
?prev@CMC_Episode@@QAEXXZ
?prev@CMC_Episode_Runner@@AAEPAVCMC_Variable@@PAVCMC_Object@@PAVCMC_ObjectsContainer@@PAVCXVector@@@Z
?prev@CMC_Groupped@@UAEPAVCMC_Object@@H@Z
?prev@CMC_Groupped_Runner@@AAEPAVCMC_Variable@@PAVCMC_Object@@PAVCMC_ObjectsContainer@@PAVCXVector@@@Z
?prev@CValidationQuene@@QAEPAVCValidationElement@@XZ
?prevEditBox@CUnit6@@UAEXXZ
?prevFrame@CMC_Animo_Runner@@AAEPAVCMC_Variable@@PAVCMC_Object@@PAVCMC_ObjectsContainer@@PAVCXVector@@@Z
?prevLine@CDataBuffer2Dim@@UAEXXZ
?previous@CAnimo@@UAEHXZ
?previous@CPlayable@@UAEHXZ
?print@CMC_Application_Runner@@AAEPAVCMC_Variable@@PAVCMC_Object@@PAVCMC_ObjectsContainer@@PAVCXVector@@@Z
?print@CPrinter@@QAEXVCXRect@@@Z
?processMessage@CXObject@@UAEHPAVCMessage@@@Z
?profile@CXObject@@SAXPAD_N@Z
?push@CQuene@@UAEXPAX@Z
?push@CXQuene@@UAEXPAVCXObject@@@Z
?put@CHashtable@@QAEXPAVCXObject@@0@Z
?put@CMemStorage@@QAEXPAXH@Z
?put@CRefreshScreen@@QAEXPAVCGraphicsObject@@H@Z
?putLine@CFile@@QAEXVCXString@@@Z
?putOnCanvas@CUnit6@@IAEXPAVCAnimo6@@PAVCMElement@@@Z
?putOnCanvas@CUnit6@@IAEXPAVCXObject@@PAVCMElement@@@Z
?putPixel15@CGraphicsObject@@QAEXHHFH_N@Z
?putPixel16@CGraphicsObject@@QAEXHHFH_N@Z
?putPixel@CGraphicsObject@@QAEXHHFH_N@Z
?quit@CWindow@@QAEXXZ
?quitOnError@CUnit6@@QAE_NPAVCXObject@@@Z
?random@CMC_Variable_Runner@@AAEPAVCMC_Variable@@PAVCMC_Object@@PAVCMC_ObjectsContainer@@PAVCXVector@@@Z
?random@CXRandom@@SAHH@Z
?random@CXRandom@@SAHHH@Z
?randomFill@CMC_Array_Runner@@AAEPAVCMC_Variable@@PAVCMC_Object@@PAVCMC_ObjectsContainer@@PAVCXVector@@@Z
?random_vector@CXRandom@@SAPAHHHH_N@Z
?readShortString@CXArchive@@QAEXPAVCXString@@@Z
?redraw@CAnimo6@@UAEXPAVCGraphicsObject@@@Z
?redraw@CFrame@@UAEXPAVCGraphicsObject@@@Z
?redraw@CGraphicsObject@@UAEXPAV1@@Z
?redraw@CMC_CanvasObserver_Runner@@AAEPAVCMC_Variable@@PAVCMC_Object@@PAVCMC_ObjectsContainer@@PAVCXVector@@@Z
?refresh@CMC_CanvasObserver_Runner@@AAEPAVCMC_Variable@@PAVCMC_Object@@PAVCMC_ObjectsContainer@@PAVCXVector@@@Z
?registerKeyListener@CWindow@@QAEXPAVCKeyListener@@@Z
?registerMouseListener@CWindow@@QAEXPAVCMouseListener@@H@Z
?release@CDXMouse@@AAEXXZ
?release@CFileResolver@@IAEXXZ
?release@CMC_CNVLoader@@UAEXVCXString@@@Z
?release@CMC_CNVLoader_Runner@@AAEPAVCMC_Variable@@PAVCMC_Object@@PAVCMC_ObjectsContainer@@PAVCXVector@@@Z
?release@CMElements@@IAEXXZ
?release@CWindow@@QAEXXZ
?releaseAfterUse@CFileResolver@@UAE_NXZ
?releaseFilesList@CFolder@@QAEXPAVCXArray@@@Z
?releaseTempBeh@CMC_Behaviour_Entry@@QAEX_N@Z
?releaseToVector@CXString@@SAXPAVCXArray@@@Z
?release_entry@CBigFile@@AAEXPAU_entry@@@Z
?remove@CAnimationManager@@QAEXPAVCPlayable@@@Z
?remove@CCanvas@@UAEXPAVCGraphicsObject@@@Z
?remove@CHashtable@@QAEXPAVCXObject@@@Z
?remove@CHotSpot@@SA_NPAV1@@Z
?remove@CMC_Array@@UAEXPAVCMC_Variable@@@Z
?remove@CMC_Array_Runner@@AAEPAVCMC_Variable@@PAVCMC_Object@@PAVCMC_ObjectsContainer@@PAVCXVector@@@Z
?remove@CMC_CanvasObserver_Runner@@AAEPAVCMC_Variable@@PAVCMC_Object@@PAVCMC_ObjectsContainer@@PAVCXVector@@@Z
?remove@CMC_Canvas_Runner@@AAEPAVCMC_Variable@@PAVCMC_Object@@PAVCMC_ObjectsContainer@@PAVCXVector@@@Z
?remove@CMC_Database@@QAEXVCXString@@PAVCMC_Variable@@@Z
?remove@CMC_Database_Runner@@AAEPAVCMC_Variable@@PAVCMC_Object@@PAVCMC_ObjectsContainer@@PAVCXVector@@@Z
?remove@CMC_Groupped@@QAEXPAVCMC_Object@@@Z
?remove@CMC_Groupped_Runner@@AAEPAVCMC_Variable@@PAVCMC_Object@@PAVCMC_ObjectsContainer@@PAVCXVector@@@Z
?remove@CMC_Pattern_Runner@@AAEPAVCMC_Variable@@PAVCMC_Object@@PAVCMC_ObjectsContainer@@PAVCXVector@@@Z
?remove@CMC_Scene_Runner@@AAEPAVCMC_Variable@@PAVCMC_Object@@PAVCMC_ObjectsContainer@@PAVCXVector@@@Z
?remove@CMC_Scroll@@QAEXVCXString@@@Z
?remove@CMC_Scroll_Runner@@AAEPAVCMC_Variable@@PAVCMC_Object@@PAVCMC_ObjectsContainer@@PAVCXVector@@@Z
?remove@CMElements@@UAEXPAVCXObject@@@Z
?remove@CMProperties@@UAEXPAVCXObject@@@Z
?remove@CPattern@@UAEXHHH@Z
?remove@CPattern@@UAEXPAVCGraphicsObject@@_N@Z
?remove@CPattern@@UAEXVCXString@@@Z
?remove@CRandomPlayable@@UAEXPAVCPlayable@@@Z
?remove@CResourcesManager@@QAEXPAV1@@Z
?remove@CResourcesManager@@QAEXPAVCFileResolver@@@Z
?remove@CSoundManager@@QAEXPAVCSound4@@@Z
?remove@CStringArray@@UAEXVCXString@@@Z
?remove@CValidationQuene@@QAEXPAVCGraphicsObject@@@Z
?remove@CXArray@@UAEXPAX@Z
?remove@CXTimer@@QAEXH@Z
?remove@CXVector@@UAEXPAVCXObject@@@Z
?removeAll@CCanvas@@UAEXXZ
?removeAll@CHashtable@@QAEXXZ
?removeAll@CMC_Array@@UAEXXZ
?removeAll@CMC_Array_Runner@@AAEPAVCMC_Variable@@PAVCMC_Object@@PAVCMC_ObjectsContainer@@PAVCXVector@@@Z
?removeAll@CMC_Database@@QAEXXZ
?removeAll@CMC_Database_Runner@@AAEPAVCMC_Variable@@PAVCMC_Object@@PAVCMC_ObjectsContainer@@PAVCXVector@@@Z
?removeAll@CMC_Groupped@@QAEXXZ
?removeAll@CMC_Groupped_Runner@@AAEPAVCMC_Variable@@PAVCMC_Object@@PAVCMC_ObjectsContainer@@PAVCXVector@@@Z
?removeAll@CMC_MultiArray@@AAEXXZ
?removeAll@CMElement@@QAEXXZ
?removeAll@CPattern@@UAEXXZ
?removeAll@CStringArray@@UAEXXZ
?removeAll@CValidationQuene@@UAEXXZ
?removeAll@CXArray@@UAEXXZ
?removeAll@CXVector@@UAEXXZ
?removeAllBehaviours@CMC_Object@@UAEXXZ
?removeAllBehaviours@CMC_Runner@@IAEPAVCMC_Variable@@PAVCMC_Object@@PAVCMC_ObjectsContainer@@PAVCXVector@@@Z
?removeAllObjects@CGraphicsObject@@QAEXXZ
?removeAt@CMC_Array@@UAEXH@Z
?removeAt@CMC_Array_Runner@@AAEPAVCMC_Variable@@PAVCMC_Object@@PAVCMC_ObjectsContainer@@PAVCXVector@@@Z
?removeAt@CMC_Database@@QAEXH@Z
?removeAt@CMC_Database_Runner@@AAEPAVCMC_Variable@@PAVCMC_Object@@PAVCMC_ObjectsContainer@@PAVCXVector@@@Z
?removeAt@CXArray@@UAEXH@Z
?removeAt@CXVector@@UAEXH@Z
?removeBehaviour@CMC_Object@@UAEXVCXString@@@Z
?removeBehaviour@CMC_Runner@@IAEPAVCMC_Variable@@PAVCMC_Object@@PAVCMC_ObjectsContainer@@PAVCXVector@@@Z
?removeClones@CMC_Scene_Runner@@AAEPAVCMC_Variable@@PAVCMC_Object@@PAVCMC_ObjectsContainer@@PAVCXVector@@@Z
?removeCollisionsMonitoring@CMC_Animo@@UAEXXZ
?removeCollisionsMonitoring@CMC_Image@@UAEXXZ
?removeCollisionsMonitoring@CMC_VirtualGraphicsObject@@UAEXXZ
?removeEditBox@CUnit6@@UAEXPAVCEditBox6@@@Z
?removeInvalidateObserver@CGraphicsObject@@UAEXPAVCInvalidateObserver@@@Z
?removeKeyListener@CWindow@@QAEXPAVCKeyListener@@@Z
?removeMonitorCollision@CMC_Animo_Runner@@AAEPAVCMC_Variable@@PAVCMC_Object@@PAVCMC_ObjectsContainer@@PAVCXVector@@@Z
?removeMonitorCollision@CMC_Image_Runner@@AAEPAVCMC_Variable@@PAVCMC_Object@@PAVCMC_ObjectsContainer@@PAVCXVector@@@Z
?removeMonitorCollision@CMC_VirtualGraphicsObject_Runner@@AAEPAVCMC_Variable@@PAVCMC_Object@@PAVCMC_ObjectsContainer@@PAVCXVector@@@Z
?removeMonitorCollisions@CMC_Scene@@UAEXPAVCGraphicsObject@@PAVCCollisionObserver@@@Z
?removeMonitoredObject@CCollisionInspector@@QAEXPAVCGraphicsObject@@@Z
?removeMouseListener@CWindow@@QAEXPAVCMouseListener@@@Z
?removeNotifier@CCollisionInspector@@QAEXPAVCCollisionObserver@@@Z
?removeNotifier@CControl@@UAEXPAVCControlNotifier@@@Z
?removeNotifier@CEditBox6@@QAEXPAVCEditBoxNotifier@@@Z
?removeNotifier@CNetworkClient@@QAEXPAVCNetClientListener@@@Z
?removeNotifier@CNetworkServer@@QAEXPAVCNetServerListener@@@Z
?removeNotifier@CPlayable@@QAEXPAVCPlayableObserver@@@Z
?removeNotifier@CRandomPlayable@@QAEXPAVCRandomPlayableNotifier@@@Z
?removeNotifier@CRefreshScreen@@QAEXPAVCCanvasObserver@@@Z
?removeObject@CGraphicsObject@@QAEXPAV1@@Z
?removeObject@CMC_ObjectsContainer@@UAE_NPAVCMC_Object@@@Z
?removeProperty@CMElement@@QAEXVCXString@@@Z
?removeRandomPlayable@CUnit6@@UAEXPAVCPlayable@@@Z
?removeSeq@CMC_Animo@@QAEXPAVCPlayable@@@Z
?removeTag@CXString@@QAEXV1@@Z
?replace@CMC_Variable_Runner@@AAEPAVCMC_Variable@@PAVCMC_Object@@PAVCMC_ObjectsContainer@@PAVCXVector@@@Z
?replace@CXArray@@UAE_NPAX0@Z
?replace@CXString@@QAE?AV1@V1@0@Z
?replace@CXVector@@UAE_NPAVCXObject@@0@Z
?replaceAt@CMC_Variable_Runner@@AAEPAVCMC_Variable@@PAVCMC_Object@@PAVCMC_ObjectsContainer@@PAVCXVector@@@Z
?replaceOnce@CXString@@QAEXV1@0H@Z
?reset@CMC_Mouse@@SAX_N@Z
?reset@CMC_Timer@@QAEXXZ
?reset@CTextFileReader@@QAEXXZ
?reset@CXTimer@@QAEXH@Z
?resetBreakpoint@CMC_Behaviour@@QAEXXZ
?resetClones@CMC_Object@@UAEXXZ
?resetClones@CMC_Runner@@IAEPAVCMC_Variable@@PAVCMC_Object@@PAVCMC_ObjectsContainer@@PAVCXVector@@@Z
?resetFlip@CMC_Animo_Runner@@AAEPAVCMC_Variable@@PAVCMC_Object@@PAVCMC_ObjectsContainer@@PAVCXVector@@@Z
?resetFlip@CMC_Image_Runner@@AAEPAVCMC_Variable@@PAVCMC_Object@@PAVCMC_ObjectsContainer@@PAVCXVector@@@Z
?resetFlips@CAnimo6@@UAEXXZ
?resetFlips@CGraphicsObject@@UAEXXZ
?resetINI@CMC_Bool@@UAEXXZ
?resetINI@CMC_Double@@UAEXXZ
?resetINI@CMC_Expression@@UAEXXZ
?resetINI@CMC_Integer@@UAEXXZ
?resetINI@CMC_String@@UAEXXZ
?resetINI@CMC_Structure@@UAEXXZ
?resetINI@CMC_Variable_Runner@@AAEPAVCMC_Variable@@PAVCMC_Object@@PAVCMC_ObjectsContainer@@PAVCXVector@@@Z
?resetMarker@CMC_Array@@UAEXXZ
?resetMarker@CMC_Array_Runner@@AAEPAVCMC_Variable@@PAVCMC_Object@@PAVCMC_ObjectsContainer@@PAVCXVector@@@Z
?resetMarker@CMC_Groupped@@UAEXXZ
?resetMarker@CMC_Groupped_Runner@@AAEPAVCMC_Variable@@PAVCMC_Object@@PAVCMC_ObjectsContainer@@PAVCXVector@@@Z
?resetPosition@CMC_Image_Runner@@AAEPAVCMC_Variable@@PAVCMC_Object@@PAVCMC_ObjectsContainer@@PAVCXVector@@@Z
?resolve@CFileNameResolver@@AAEXXZ
?resolve@CMC_ObjectsContainer@@QAEPAVCXVector@@PAVCMElement@@PAVCMC_Groupped@@@Z
?resolve@CMC_Variable@@SAPAV1@VCXString@@@Z
?resolveCondition@CMC_Behaviour@@QAEXXZ
?resolveCondition@CMC_Condition@@AAEXXZ
?resolveDLLs@CMC_Scene@@MAEXVCXString@@@Z
?resolveEventName@CAnimo@@QAEHVCXString@@@Z
?resolveEx@CMC_Scene@@UAEPAVCMC_Object@@PAVCMElement@@@Z
?resolveFileName@CPath@@QAE?AVCXString@@V2@@Z
?resolveFileName@CPath@@SA?AVCXString@@PAVCWindow@@V2@@Z
?resolveFileNameEx@CPath@@SA?AVCXString@@PAVCWindow@@V2@@Z
?resolveJustify@CMC_Text@@SA?AW4_justify@@VCXString@@@Z
?resolveMethod@CMC_Runner@@UAEHVCXString@@@Z
?resolveObject@CMC_Behaviour@@SAPAVCMC_Object@@PAVCMC_ObjectsContainer@@PAV2@VCXString@@PAV4@PAV1@@Z
?resolveObjects@CMC_ObjectsContainer@@QAEPAVCMElements@@PAV2@@Z
?resolveObjects@CUnit6@@UAEPAVCMElements@@PAVCMC_Scene@@PAV2@@Z
?resolveOp@CMC_Expression@@AAEHVCXString@@@Z
?resolveOperator@CMC_ComplexCondition@@AAEXXZ
?resolveParameter@CMC_Behaviour@@SAPAVCMC_Variable@@PAVCMC_ObjectsContainer@@PAVCMC_Object@@VCXString@@PAV1@@Z
?resolveParameters@CMC_Behaviour@@SAPAVCXVector@@PAVCMC_ObjectsContainer@@PAVCMC_Object@@VCXString@@PAV1@@Z
?restart@CMC_Application@@UAEXXZ
?restart@CMC_Application_Runner@@AAEPAVCMC_Variable@@PAVCMC_Object@@PAVCMC_ObjectsContainer@@PAVCXVector@@@Z
?restart@CMC_Episode_Runner@@AAEPAVCMC_Variable@@PAVCMC_Object@@PAVCMC_ObjectsContainer@@PAVCXVector@@@Z
?restart@CMC_Scene@@UAEXXZ
?restore@CDataBuffer@@UAEX_N@Z
?restore@CMC_Bool@@UAEXPAVCXArchive@@@Z
?restore@CMC_Double@@UAEXPAVCXArchive@@@Z
?restore@CMC_Expression@@UAEXPAVCXArchive@@@Z
?restore@CMC_Integer@@UAEXPAVCXArchive@@@Z
?restore@CMC_Mouse@@SAXXZ
?restore@CMC_String@@UAEXPAVCXArchive@@@Z
?restore@CMC_Structure@@UAEXPAVCXArchive@@@Z
?restore@CMC_VariableFactory@@SAPAVCMC_Variable@@PAVCXArchive@@@Z
?restoreAlpha@CGraphicsObject@@QAEXPAV1@@Z
?restoreImage@CGraphicsObject@@AAEXXZ
?resume@CAnimationManager@@UAEXPAVCMC_Groupped@@@Z
?resume@CAnimo@@UAEXXZ
?resume@CImage@@UAEXXZ
?resume@CMC_Animo_Runner@@AAEPAVCMC_Variable@@PAVCMC_Object@@PAVCMC_ObjectsContainer@@PAVCXVector@@@Z
?resume@CMC_Scene_Runner@@AAEPAVCMC_Variable@@PAVCMC_Object@@PAVCMC_ObjectsContainer@@PAVCXVector@@@Z
?resume@CMC_Sequence_Runner@@AAEPAVCMC_Variable@@PAVCMC_Object@@PAVCMC_ObjectsContainer@@PAVCXVector@@@Z
?resume@CMC_Sound_Runner@@AAEPAVCMC_Variable@@PAVCMC_Object@@PAVCMC_ObjectsContainer@@PAVCXVector@@@Z
?resume@CMC_Timer@@QAEXXZ
?resume@CSequencedPlayable@@UAEXXZ
?resume@CSound4@@UAEXXZ
?resume@CSoundManager@@UAEXXZ
?resume@CSpeakingAnimation@@UAEXXZ
?resume@CWindow@@SAXXZ
?resume@CXTimer@@QAEXXZ
?resumeExcept@CMC_Scene_Runner@@AAEPAVCMC_Variable@@PAVCMC_Object@@PAVCMC_ObjectsContainer@@PAVCXVector@@@Z
?reverse@CSortedVector@@QAEPAV1@XZ
?reversefind@CMC_Array@@UAEHPAVCMC_Variable@@@Z
?reversefind@CMC_Array_Runner@@AAEPAVCMC_Variable@@PAVCMC_Object@@PAVCMC_ObjectsContainer@@PAVCXVector@@@Z
?right@CXString@@QAEXH@Z
?right@CXString@@QAEXHPAV1@@Z
?rotateLeft@CMC_Array@@QAEXXZ
?rotateLeft@CMC_Array_Runner@@AAEPAVCMC_Variable@@PAVCMC_Object@@PAVCMC_ObjectsContainer@@PAVCXVector@@@Z
?rotateRight@CMC_Array@@QAEXXZ
?rotateRight@CMC_Array_Runner@@AAEPAVCMC_Variable@@PAVCMC_Object@@PAVCMC_ObjectsContainer@@PAVCXVector@@@Z
?round@CMC_Variable_Runner@@AAEPAVCMC_Variable@@PAVCMC_Object@@PAVCMC_ObjectsContainer@@PAVCXVector@@@Z
?run@CMC_Animo_Runner@@UAEPAVCMC_Variable@@HPAVCMC_Object@@PAVCMC_ObjectsContainer@@PAVCXVector@@@Z
?run@CMC_Application_Runner@@AAEPAVCMC_Variable@@PAVCMC_Object@@PAVCMC_ObjectsContainer@@PAVCXVector@@@Z
?run@CMC_Application_Runner@@UAEPAVCMC_Variable@@HPAVCMC_Object@@PAVCMC_ObjectsContainer@@PAVCXVector@@@Z
?run@CMC_Array_Runner@@UAEPAVCMC_Variable@@HPAVCMC_Object@@PAVCMC_ObjectsContainer@@PAVCXVector@@@Z
?run@CMC_BasicCondition_Runner@@UAEPAVCMC_Variable@@HPAVCMC_Object@@PAVCMC_ObjectsContainer@@PAVCXVector@@@Z
?run@CMC_Behaviour@@UAE_NPAVCMC_Object@@PAVCXArray@@_N@Z
?run@CMC_Behaviour_Entry@@QAEPAVCMC_Variable@@PAVCMC_Object@@PAVCXArray@@@Z
?run@CMC_Behaviour_Runner@@AAEPAVCMC_Variable@@PAVCMC_Object@@PAVCMC_ObjectsContainer@@PAVCXVector@@@Z
?run@CMC_Behaviour_Runner@@UAEPAVCMC_Variable@@HPAVCMC_Object@@PAVCMC_ObjectsContainer@@PAVCXVector@@@Z
?run@CMC_Button_Runner@@UAEPAVCMC_Variable@@HPAVCMC_Object@@PAVCMC_ObjectsContainer@@PAVCXVector@@@Z
?run@CMC_CNVLoader_Runner@@UAEPAVCMC_Variable@@HPAVCMC_Object@@PAVCMC_ObjectsContainer@@PAVCXVector@@@Z
?run@CMC_CanvasObserver_Runner@@UAEPAVCMC_Variable@@HPAVCMC_Object@@PAVCMC_ObjectsContainer@@PAVCXVector@@@Z
?run@CMC_Canvas_Runner@@UAEPAVCMC_Variable@@HPAVCMC_Object@@PAVCMC_ObjectsContainer@@PAVCXVector@@@Z
?run@CMC_Class_Runner@@UAEPAVCMC_Variable@@HPAVCMC_Object@@PAVCMC_ObjectsContainer@@PAVCXVector@@@Z
?run@CMC_Class_Runner@@UAEPAVCMC_Variable@@VCXString@@PAVCMC_Object@@PAVCMC_ObjectsContainer@@PAVCXVector@@@Z
?run@CMC_Database_Runner@@UAEPAVCMC_Variable@@HPAVCMC_Object@@PAVCMC_ObjectsContainer@@PAVCXVector@@@Z
?run@CMC_Dialog_Runner@@UAEPAVCMC_Variable@@HPAVCMC_Object@@PAVCMC_ObjectsContainer@@PAVCXVector@@@Z
?run@CMC_EditBox_Runner@@UAEPAVCMC_Variable@@HPAVCMC_Object@@PAVCMC_ObjectsContainer@@PAVCXVector@@@Z
?run@CMC_Episode_Runner@@UAEPAVCMC_Variable@@HPAVCMC_Object@@PAVCMC_ObjectsContainer@@PAVCXVector@@@Z
?run@CMC_Font_Runner@@UAEPAVCMC_Variable@@HPAVCMC_Object@@PAVCMC_ObjectsContainer@@PAVCXVector@@@Z
?run@CMC_Groupped_Runner@@UAEPAVCMC_Variable@@HPAVCMC_Object@@PAVCMC_ObjectsContainer@@PAVCXVector@@@Z
?run@CMC_Groupped_Runner@@UAEPAVCMC_Variable@@VCXString@@PAVCMC_Object@@PAVCMC_ObjectsContainer@@PAVCXVector@@@Z
?run@CMC_Image_Runner@@UAEPAVCMC_Variable@@HPAVCMC_Object@@PAVCMC_ObjectsContainer@@PAVCXVector@@@Z
?run@CMC_Joystick_Runner@@UAEPAVCMC_Variable@@HPAVCMC_Object@@PAVCMC_ObjectsContainer@@PAVCXVector@@@Z
?run@CMC_Keyboard_Runner@@UAEPAVCMC_Variable@@HPAVCMC_Object@@PAVCMC_ObjectsContainer@@PAVCXVector@@@Z
?run@CMC_Mouse_Runner@@UAEPAVCMC_Variable@@HPAVCMC_Object@@PAVCMC_ObjectsContainer@@PAVCXVector@@@Z
?run@CMC_MultiArray_Runner@@UAEPAVCMC_Variable@@HPAVCMC_Object@@PAVCMC_ObjectsContainer@@PAVCXVector@@@Z
?run@CMC_NetClient_Runner@@UAEPAVCMC_Variable@@HPAVCMC_Object@@PAVCMC_ObjectsContainer@@PAVCXVector@@@Z
?run@CMC_NetServer_Runner@@UAEPAVCMC_Variable@@HPAVCMC_Object@@PAVCMC_ObjectsContainer@@PAVCXVector@@@Z
?run@CMC_Pattern_Runner@@UAEPAVCMC_Variable@@HPAVCMC_Object@@PAVCMC_ObjectsContainer@@PAVCXVector@@@Z
?run@CMC_Rand_Runner@@UAEPAVCMC_Variable@@HPAVCMC_Object@@PAVCMC_ObjectsContainer@@PAVCXVector@@@Z
?run@CMC_Runner@@UAEPAVCMC_Variable@@HPAVCMC_Object@@PAVCMC_ObjectsContainer@@PAVCXVector@@@Z
?run@CMC_Runner@@UAEPAVCMC_Variable@@VCXString@@PAVCMC_Object@@PAVCMC_ObjectsContainer@@PAVCXVector@@@Z
?run@CMC_Scene_Runner@@AAEPAVCMC_Variable@@PAVCMC_Object@@PAVCMC_ObjectsContainer@@PAVCXVector@@@Z
?run@CMC_Scene_Runner@@UAEPAVCMC_Variable@@HPAVCMC_Object@@PAVCMC_ObjectsContainer@@PAVCXVector@@@Z
?run@CMC_Scroll_Runner@@UAEPAVCMC_Variable@@HPAVCMC_Object@@PAVCMC_ObjectsContainer@@PAVCXVector@@@Z
?run@CMC_Sequence_Runner@@UAEPAVCMC_Variable@@HPAVCMC_Object@@PAVCMC_ObjectsContainer@@PAVCXVector@@@Z
?run@CMC_Sound_Runner@@UAEPAVCMC_Variable@@HPAVCMC_Object@@PAVCMC_ObjectsContainer@@PAVCXVector@@@Z
?run@CMC_Structure_Runner@@UAEPAVCMC_Variable@@HPAVCMC_Object@@PAVCMC_ObjectsContainer@@PAVCXVector@@@Z
?run@CMC_System_Runner@@UAEPAVCMC_Variable@@HPAVCMC_Object@@PAVCMC_ObjectsContainer@@PAVCXVector@@@Z
?run@CMC_Text_Runner@@UAEPAVCMC_Variable@@HPAVCMC_Object@@PAVCMC_ObjectsContainer@@PAVCXVector@@@Z
?run@CMC_Timer_Runner@@UAEPAVCMC_Variable@@HPAVCMC_Object@@PAVCMC_ObjectsContainer@@PAVCXVector@@@Z
?run@CMC_Variable_Runner@@UAEPAVCMC_Variable@@HPAVCMC_Object@@PAVCMC_ObjectsContainer@@PAVCXVector@@@Z
?run@CMC_VirtualGraphicsObject_Runner@@UAEPAVCMC_Variable@@HPAVCMC_Object@@PAVCMC_ObjectsContainer@@PAVCXVector@@@Z
?runC@CMC_Behaviour_Runner@@AAEPAVCMC_Variable@@PAVCMC_Object@@PAVCMC_ObjectsContainer@@PAVCXVector@@@Z
?runClass@CMC_Class_Runner@@UAEPAVCMC_Variable@@PAVCMC_Object@@PAVCMC_ObjectsContainer@@PAVCXVector@@VCXString@@@Z
?runClones@CMC_Scene_Runner@@AAEPAVCMC_Variable@@PAVCMC_Object@@PAVCMC_ObjectsContainer@@PAVCXVector@@@Z
?runEnv@CMC_Application_Runner@@AAEPAVCMC_Variable@@PAVCMC_Object@@PAVCMC_ObjectsContainer@@PAVCXVector@@@Z
?runLine@CMC_Behaviour@@SAPAVCMC_Variable@@PAVCMC_ObjectsContainer@@PAVCMC_Object@@VCXString@@PAV1@@Z
?runLooped@CMC_Behaviour_Runner@@AAEPAVCMC_Variable@@PAVCMC_Object@@PAVCMC_ObjectsContainer@@PAVCXVector@@@Z
?runOnTimer@CMC_Behaviour@@UAEXHHPAVCXArray@@PAV1@@Z
?safeGet@CMC_MultiArray_Runner@@AAEPAVCMC_Variable@@PAVCMC_Object@@PAVCMC_ObjectsContainer@@PAVCXVector@@@Z
?save@CMC_Array@@UAEXVCXString@@@Z
?save@CMC_Array_Runner@@AAEPAVCMC_Variable@@PAVCMC_Object@@PAVCMC_ObjectsContainer@@PAVCXVector@@@Z
?save@CMC_CanvasObserver_Runner@@AAEPAVCMC_Variable@@PAVCMC_Object@@PAVCMC_ObjectsContainer@@PAVCXVector@@@Z
?save@CMC_Canvas_Runner@@AAEPAVCMC_Variable@@PAVCMC_Object@@PAVCMC_ObjectsContainer@@PAVCXVector@@@Z
?save@CMC_Database@@QAEXVCXString@@@Z
?save@CMC_Database_Runner@@AAEPAVCMC_Variable@@PAVCMC_Object@@PAVCMC_ObjectsContainer@@PAVCXVector@@@Z
?save@CMC_Image_Runner@@AAEPAVCMC_Variable@@PAVCMC_Object@@PAVCMC_ObjectsContainer@@PAVCXVector@@@Z
?save@CMC_MultiArray@@UAEXVCXString@@@Z
?save@CMC_MultiArray_Runner@@AAEPAVCMC_Variable@@PAVCMC_Object@@PAVCMC_ObjectsContainer@@PAVCXVector@@@Z
?save@CMElementsLoader@@SA_NVCXString@@PAVCMElements@@@Z
?save@CMultimediaSequenceCreator@@SA_NPAVCPlayable@@VCXString@@@Z
?saveINI@CMC_Array@@UAEXXZ
?saveINI@CMC_Array_Runner@@AAEPAVCMC_Variable@@PAVCMC_Object@@PAVCMC_ObjectsContainer@@PAVCXVector@@@Z
?saveINI@CMC_MultiArray@@UAEXXZ
?save_entry@CBigFile@@AAEXPAVCXArchive@@PAU_entry@@@Z
?save_entry_contents@CBigFile@@AAEXPAVCXArchive@@PAU_entry@@@Z
?scrollDown@CMC_Scroll@@QAEXH@Z
?scrollDown@CMC_Scroll_Runner@@AAEPAVCMC_Variable@@PAVCMC_Object@@PAVCMC_ObjectsContainer@@PAVCXVector@@@Z
?scrollLeft@CMC_Scroll@@QAEXH@Z
?scrollLeft@CMC_Scroll_Runner@@AAEPAVCMC_Variable@@PAVCMC_Object@@PAVCMC_ObjectsContainer@@PAVCXVector@@@Z
?scrollRight@CMC_Scroll@@QAEXH@Z
?scrollRight@CMC_Scroll_Runner@@AAEPAVCMC_Variable@@PAVCMC_Object@@PAVCMC_ObjectsContainer@@PAVCXVector@@@Z
?scrollUp@CMC_Scroll@@QAEXH@Z
?scrollUp@CMC_Scroll_Runner@@AAEPAVCMC_Variable@@PAVCMC_Object@@PAVCMC_ObjectsContainer@@PAVCXVector@@@Z
?seek@CAnimo@@UAEXH@Z
?seek@CBigFile@@AAEPAU_file@@VCXString@@0PAU_entry@@@Z
?seek@CImage@@UAEXH@Z
?seek@CSequencedPlayable@@UAEXH@Z
?seek@CSound4@@UAEXH@Z
?seek@CSpeakingAnimation@@UAEXH@Z
?select@CMC_Database@@QAEXH@Z
?select@CMC_Database_Runner@@AAEPAVCMC_Variable@@PAVCMC_Object@@PAVCMC_ObjectsContainer@@PAVCXVector@@@Z
?send@CMC_Runner@@IAEPAVCMC_Variable@@PAVCMC_Object@@PAVCMC_ObjectsContainer@@PAVCXVector@@@Z
?send@CNetworkClient@@QAEXPAVCNetMessage@@@Z
?send@CNetworkServer@@QAEXVCXString@@PAVCNetMessage@@@Z
?sendCmd@CMC_NetClient@@QAEXVCXString@@@Z
?sendCmd@CMC_NetClient_Runner@@AAEPAVCMC_Variable@@PAVCMC_Object@@PAVCMC_ObjectsContainer@@PAVCXVector@@@Z
?sendCmd@CMC_NetServer@@QAEXVCXString@@0@Z
?sendCmd@CMC_NetServer_Runner@@AAEPAVCMC_Variable@@PAVCMC_Object@@PAVCMC_ObjectsContainer@@PAVCXVector@@@Z
?sendOnChange@CMC_Array_Runner@@AAEPAVCMC_Variable@@PAVCMC_Object@@PAVCMC_ObjectsContainer@@PAVCXVector@@@Z
?sendVar@CMC_NetClient@@QAEXPAVCMC_Variable@@@Z
?sendVar@CMC_NetServer@@QAEXPAVCMC_Variable@@@Z
?serialize@CMC_Animo@@UAEXPAVCXArchive@@@Z
?serialize@CMC_Application@@UAEXPAVCXArchive@@@Z
?serialize@CMC_Array@@UAEXPAVCXArchive@@@Z
?serialize@CMC_BasicCondition@@UAEXPAVCXArchive@@@Z
?serialize@CMC_Behaviour@@UAEXPAVCXArchive@@@Z
?serialize@CMC_Bool@@UAEXPAVCXArchive@@@Z
?serialize@CMC_Button@@UAEXPAVCXArchive@@@Z
?serialize@CMC_Canvas@@UAEXPAVCXArchive@@@Z
?serialize@CMC_ComplexCondition@@UAEXPAVCXArchive@@@Z
?serialize@CMC_Condition@@UAEXPAVCXArchive@@@Z
?serialize@CMC_Double@@UAEXPAVCXArchive@@@Z
?serialize@CMC_EditBox@@UAEXPAVCXArchive@@@Z
?serialize@CMC_Episode@@UAEXPAVCXArchive@@@Z
?serialize@CMC_Font@@UAEXPAVCXArchive@@@Z
?serialize@CMC_Image@@UAEXPAVCXArchive@@@Z
?serialize@CMC_Integer@@UAEXPAVCXArchive@@@Z
?serialize@CMC_MultiArray@@UAEXPAVCXArchive@@@Z
?serialize@CMC_Object@@UAEXPAVCXArchive@@@Z
?serialize@CMC_Pattern@@UAEXPAVCXArchive@@@Z
?serialize@CMC_Scene@@UAEXPAVCXArchive@@@Z
?serialize@CMC_Scroll@@UAEXPAVCXArchive@@@Z
?serialize@CMC_Sequence@@UAEXPAVCXArchive@@@Z
?serialize@CMC_Sound@@UAEXPAVCXArchive@@@Z
?serialize@CMC_String@@UAEXPAVCXArchive@@@Z
?serialize@CMC_Text@@UAEXPAVCXArchive@@@Z
?serialize@CMC_Timer@@UAEXPAVCXArchive@@@Z
?serialize@CMC_Variable@@UAEXPAVCXArchive@@@Z
?serializeEx@CMC_Scene@@MAEPAVCMC_Object@@PAVCXArchive@@H@Z
?set@CColor@@QAEXH@Z
?set@CMC_Bool@@UAEXPAVCMC_Variable@@@Z
?set@CMC_Double@@UAEXPAVCMC_Variable@@@Z
?set@CMC_Expression@@UAEXPAVCMC_Variable@@@Z
?set@CMC_Integer@@UAEXPAVCMC_Variable@@@Z
?set@CMC_Mouse@@QAEXH@Z
?set@CMC_Mouse@@QAEXVCXString@@@Z
?set@CMC_Mouse_Runner@@AAEPAVCMC_Variable@@PAVCMC_Object@@PAVCMC_ObjectsContainer@@PAVCXVector@@@Z
?set@CMC_MultiArray@@UAEXPAHPAVCMC_Variable@@@Z
?set@CMC_MultiArray@@UAEXPAPAVCMC_Variable@@PAH1PAV2@_N@Z
?set@CMC_MultiArray_Runner@@AAEPAVCMC_Variable@@PAVCMC_Object@@PAVCMC_ObjectsContainer@@PAVCXVector@@@Z
?set@CMC_String@@UAEXPAVCMC_Variable@@@Z
?set@CMC_Structure@@UAEXPAVCMC_Variable@@@Z
?set@CMC_Structure_Runner@@AAEPAVCMC_Variable@@PAVCMC_Object@@PAVCMC_ObjectsContainer@@PAVCXVector@@@Z
?set@CMC_Timer@@QAEXH@Z
?set@CMC_Variable@@UAEXPAV1@@Z
?set@CMC_Variable_Runner@@AAEPAVCMC_Variable@@PAVCMC_Object@@PAVCMC_ObjectsContainer@@PAVCXVector@@@Z
?set@CStringHashCode@@QAEXPAD@Z
?setActivity@CUnit6@@QAEX_N@Z
?setAlphaAsMask@CGraphicsObject@@QAEX_N@Z
?setAnchor@CGraphicsObject@@UAEXHH@Z
?setAnchor@CGraphicsObject@@UAEXVCXPoint@@@Z
?setAnchor@CMC_Animo_Runner@@AAEPAVCMC_Variable@@PAVCMC_Object@@PAVCMC_ObjectsContainer@@PAVCXVector@@@Z
?setAnchor@CMC_Image_Runner@@AAEPAVCMC_Variable@@PAVCMC_Object@@PAVCMC_ObjectsContainer@@PAVCXVector@@@Z
?setAnimation@CSpeakingAnimation@@QAEXVCXString@@@Z
?setAnimoFN@CTreeSequenceElements@@QAEXVCXString@@0@Z
?setAsButton@CMC_Animo@@QAEX_N0@Z
?setAsButton@CMC_Animo_Runner@@AAEPAVCMC_Variable@@PAVCMC_Object@@PAVCMC_ObjectsContainer@@PAVCXVector@@@Z
?setAsButton@CMC_Canvas@@UAEX_N0@Z
?setAsButton@CMC_Canvas_Runner@@AAEPAVCMC_Variable@@PAVCMC_Object@@PAVCMC_ObjectsContainer@@PAVCXVector@@@Z
?setAsButton@CMC_Image@@QAEX_N0@Z
?setAsButton@CMC_Image_Runner@@AAEPAVCMC_Variable@@PAVCMC_Object@@PAVCMC_ObjectsContainer@@PAVCXVector@@@Z
?setAsButton@CMC_Pattern@@QAEX_N0@Z
?setAsButton@CMC_VirtualGraphicsObject@@QAEX_N0@Z
?setAsButton@CMC_VirtualGraphicsObject_Runner@@AAEPAVCMC_Variable@@PAVCMC_Object@@PAVCMC_ObjectsContainer@@PAVCXVector@@@Z
?setAsHdd@CCommandLine6@@QAEX_N@Z
?setAsTemporary@CMC_Object@@QAEXXZ
?setAt@CXArray@@UAEPAXHPAX@Z
?setAt@CXVector@@UAEPAVCXObject@@HPAV2@@Z
?setAutoRepeat@CKeyboard@@QAEX_N@Z
?setAutoRepeat@CMC_Keyboard_Runner@@AAEPAVCMC_Variable@@PAVCMC_Object@@PAVCMC_ObjectsContainer@@PAVCXVector@@@Z
?setBackground@CBackgroundManager@CRefreshScreen@@QAEXPAVCDirectDrawSurface@@@Z
?setBackground@CMC_CanvasObserver_Runner@@AAEPAVCMC_Variable@@PAVCMC_Object@@PAVCMC_ObjectsContainer@@PAVCXVector@@@Z
?setBackground@CMC_Dialog_Runner@@AAEPAVCMC_Variable@@PAVCMC_Object@@PAVCMC_ObjectsContainer@@PAVCXVector@@@Z
?setBackground@CRefreshScreen@@QAEXPAVCDirectDrawSurface@@@Z
?setBackground@CUnit6@@UAEXXZ
?setBackground@CXDialog@@UAEXPAVCGraphicsObject@@@Z
?setBackgroundFileName@CUnit6@@QAEXVCXString@@@Z
?setBackward@CMC_Animo_Runner@@AAEPAVCMC_Variable@@PAVCMC_Object@@PAVCMC_ObjectsContainer@@PAVCXVector@@@Z
?setBaseFont@CFontCollection@@QAEXPAVCSimpleFont6@@@Z
?setBkgPos@CMC_CanvasObserver_Runner@@AAEPAVCMC_Variable@@PAVCMC_Object@@PAVCMC_ObjectsContainer@@PAVCXVector@@@Z
?setBreakpoint@CMC_Behaviour@@QAEXH@Z
?setCDPath@CWindow@@SAXVCXString@@@Z
?setClass@CMC_Object@@UAEXPAVCMC_Class@@@Z
?setClipRect@CMC_Mouse@@UAEXHHHH@Z
?setClipRect@CMC_Mouse_Runner@@AAEPAVCMC_Variable@@PAVCMC_Object@@PAVCMC_ObjectsContainer@@PAVCXVector@@@Z
?setClipping@CMC_Animo_Runner@@AAEPAVCMC_Variable@@PAVCMC_Object@@PAVCMC_ObjectsContainer@@PAVCXVector@@@Z
?setClipping@CMC_Image_Runner@@AAEPAVCMC_Variable@@PAVCMC_Object@@PAVCMC_ObjectsContainer@@PAVCXVector@@@Z
?setClipping@CMC_Text_Runner@@AAEPAVCMC_Variable@@PAVCMC_Object@@PAVCMC_ObjectsContainer@@PAVCXVector@@@Z
?setClipping@CMC_VirtualGraphicsObject_Runner@@AAEPAVCMC_Variable@@PAVCMC_Object@@PAVCMC_ObjectsContainer@@PAVCXVector@@@Z
?setColor@CEditBox6@@QAEXH@Z
?setColor@CFontCollection@@UAEXH@Z
?setColor@CMC_Font_Runner@@AAEPAVCMC_Variable@@PAVCMC_Object@@PAVCMC_ObjectsContainer@@PAVCXVector@@@Z
?setColor@CMC_Text_Runner@@AAEPAVCMC_Variable@@PAVCMC_Object@@PAVCMC_ObjectsContainer@@PAVCXVector@@@Z
?setColor@CSimpleFont6@@UAEXH@Z
?setColor@CText6@@UAEXH@Z
?setCursor@CEditBox6@@QAEXPAVCGraphicsObject@@@Z
?setCursor@CUnit6@@UAEXPAVCGraphicsObject@@@Z
?setCursorPos@CEditBox6@@QAEXH@Z
?setCursorPos@CMC_EditBox_Runner@@AAEPAVCMC_Variable@@PAVCMC_Object@@PAVCMC_ObjectsContainer@@PAVCXVector@@@Z
?setCycle@CTextCoder@@AAEXH@Z
?setData@CCompression@@UAEXPAD@Z
?setDefColor@CSimpleFont6@@QAEHH@Z
?setDefault@CMC_Bool@@UAEXPAVCMC_Variable@@@Z
?setDefault@CMC_Double@@UAEXPAVCMC_Variable@@@Z
?setDefault@CMC_Expression@@UAEXPAVCMC_Variable@@@Z
?setDefault@CMC_Integer@@UAEXPAVCMC_Variable@@@Z
?setDefault@CMC_String@@UAEXPAVCMC_Variable@@@Z
?setDefault@CMC_Structure@@UAEXPAVCMC_Variable@@@Z
?setDefault@CMC_Variable_Runner@@AAEPAVCMC_Variable@@PAVCMC_Object@@PAVCMC_ObjectsContainer@@PAVCXVector@@@Z
?setDefaultFont@CApplication@@QAEXPAVCFont5@@@Z
?setDestiny@CFont5@@QAEXPAVCGraphicsObject@@@Z
?setDraggedData@CUnit6@@QAEXPAX@Z
?setDraggedName@CMC_Scene@@QAEXVCXString@@@Z
?setDraggingMode@CUnit6@@QAEX_N@Z
?setElapse@CMC_Timer@@QAEXI@Z
?setEnding@CSpeakingAnimation@@QAEX_N@Z
?setEnding@CTreeSequenceElements@@QAEXVCXString@@_N@Z
?setErrorCode@CXObject@@QAEXH@Z
?setEvent@CTreeSequenceElements@@QAEXVCXString@@0@Z
?setFPS@CMC_Animo_Runner@@AAEPAVCMC_Variable@@PAVCMC_Object@@PAVCMC_ObjectsContainer@@PAVCXVector@@@Z
?setFamily@CMC_Font_Runner@@AAEPAVCMC_Variable@@PAVCMC_Object@@PAVCMC_ObjectsContainer@@PAVCXVector@@@Z
?setFamily@CSimpleFont6@@QAEXVCXString@@@Z
?setField@CMC_Structure@@QAEXHPAVCMC_Variable@@@Z
?setField@CMC_Structure@@QAEXVCXString@@PAVCMC_Variable@@@Z
?setField@CMC_Structure_Runner@@AAEPAVCMC_Variable@@PAVCMC_Object@@PAVCMC_ObjectsContainer@@PAVCXVector@@@Z
?setFileName@CGraphicsObject@@QAEXVCXString@@@Z
?setFileName@CTreeSequenceElements@@QAEXVCXString@@0@Z
?setFilename@CFileResolver@@UAEXVCXString@@@Z
?setFirst@CXPair@@QAEXPAX@Z
?setFont@CMC_Text_Runner@@AAEPAVCMC_Variable@@PAVCMC_Object@@PAVCMC_ObjectsContainer@@PAVCXVector@@@Z
?setFont@CMultilineText6@@QAEXPAVCSimpleFont6@@@Z
?setFont@CText6@@QAEXPAVCSimpleFont6@@@Z
?setForward@CMC_Animo_Runner@@AAEPAVCMC_Variable@@PAVCMC_Object@@PAVCMC_ObjectsContainer@@PAVCXVector@@@Z
?setFrame@CMC_Animo_Runner@@AAEPAVCMC_Variable@@PAVCMC_Object@@PAVCMC_ObjectsContainer@@PAVCXVector@@@Z
?setFrameName@CMC_Animo_Runner@@AAEPAVCMC_Variable@@PAVCMC_Object@@PAVCMC_ObjectsContainer@@PAVCXVector@@@Z
?setFreq@CSndStream@@QAEXH@Z
?setFrequency@CAnimo6@@UAEXH@Z
?setFrequency@CMC_Animo_Runner@@AAEPAVCMC_Variable@@PAVCMC_Object@@PAVCMC_ObjectsContainer@@PAVCXVector@@@Z
?setFrequency@CMC_Sequence_Runner@@AAEPAVCMC_Variable@@PAVCMC_Object@@PAVCMC_ObjectsContainer@@PAVCXVector@@@Z
?setFrequency@CMC_Sound_Runner@@AAEPAVCMC_Variable@@PAVCMC_Object@@PAVCMC_ObjectsContainer@@PAVCXVector@@@Z
?setFrequency@CPlayable@@UAEXH@Z
?setFrequency@CSound4@@UAEXH@Z
?setGenericNotifier@CPlayable@@QAEXPAVCPlayableObserver@@@Z
?setGrid@CMC_Pattern_Runner@@AAEPAVCMC_Variable@@PAVCMC_Object@@PAVCMC_ObjectsContainer@@PAVCXVector@@@Z
?setGrid@CPattern@@QAEXVCXSize@@@Z
?setIfc@CMC_Joystick@@UAEXPAUIDirectInputDevice8A@@@Z
?setJustify@CMC_Text_Runner@@AAEPAVCMC_Variable@@PAVCMC_Object@@PAVCMC_ObjectsContainer@@PAVCXVector@@@Z
?setJustify@CMultilineText6@@QAEXVCXRect@@W4_justify@@1@Z
?setJustify@CText6@@QAEXVCXRect@@W4_justify@@1@Z
?setLanguage@CMC_Application_Runner@@AAEPAVCMC_Variable@@PAVCMC_Object@@PAVCMC_ObjectsContainer@@PAVCXVector@@@Z
?setLanguageFolder@CLanguageOSVer@@QAEXVCXString@@@Z
?setLoadAtStart@CAnimo@@QAEX_N@Z
?setMarkerPos@CMC_Array@@UAEXH@Z
?setMarkerPos@CMC_Array_Runner@@AAEPAVCMC_Variable@@PAVCMC_Object@@PAVCMC_ObjectsContainer@@PAVCXVector@@@Z
?setMarkerPos@CMC_Groupped@@UAEXH@Z
?setMarkerPos@CMC_Groupped_Runner@@AAEPAVCMC_Variable@@PAVCMC_Object@@PAVCMC_ObjectsContainer@@PAVCXVector@@@Z
?setMask@CMC_VirtualGraphicsObject_Runner@@AAEPAVCMC_Variable@@PAVCMC_Object@@PAVCMC_ObjectsContainer@@PAVCXVector@@@Z
?setMaxLen@CEditBox6@@QAEXH@Z
?setMaxPriority@CHotSpot@@SAXH@Z
?setMaxPriority@CMC_Scene_Runner@@AAEPAVCMC_Variable@@PAVCMC_Object@@PAVCMC_ObjectsContainer@@PAVCXVector@@@Z
?setMinPriority@CHotSpot@@SAXH@Z
?setMinPriority@CMC_Scene_Runner@@AAEPAVCMC_Variable@@PAVCMC_Object@@PAVCMC_ObjectsContainer@@PAVCXVector@@@Z
?setMode@CPlayable@@QAEXH@Z
?setMode@CTreeSequenceElements@@QAEXVCXString@@0@Z
?setMonitorCollisions@CGraphicsObject@@UAEX_N@Z
?setMouseCaption@CWindow@@QAEXPAVCMouseListener@@@Z
?setMusicFreq@CMC_Scene_Runner@@AAEPAVCMC_Variable@@PAVCMC_Object@@PAVCMC_ObjectsContainer@@PAVCXVector@@@Z
?setMusicFreq@CWindow@@QAEXH@Z
?setMusicPan@CMC_Scene_Runner@@AAEPAVCMC_Variable@@PAVCMC_Object@@PAVCMC_ObjectsContainer@@PAVCXVector@@@Z
?setMusicPan@CWindow@@QAEXH@Z
?setMusicVolume@CMC_Scene_Runner@@AAEPAVCMC_Variable@@PAVCMC_Object@@PAVCMC_ObjectsContainer@@PAVCXVector@@@Z
?setMusicVolume@CWindow@@QAEXH@Z
?setName@CMC_Object@@QAEXVCXString@@@Z
?setName@CMProperty@@QAEXVCXString@@@Z
?setName@CPlayable@@QAEXVCXString@@@Z
?setNotifier@CPlayable@@UAEXPAVCPlayableObserver@@@Z
?setOnClick@CMC_Button_Runner@@AAEPAVCMC_Variable@@PAVCMC_Object@@PAVCMC_ObjectsContainer@@PAVCXVector@@@Z
?setOnFirstFrame@CMC_Animo@@QAEX_N@Z
?setOnFirstFrame@CMC_Animo_Runner@@AAEPAVCMC_Variable@@PAVCMC_Object@@PAVCMC_ObjectsContainer@@PAVCXVector@@@Z
?setOnMove@CMC_Button_Runner@@AAEPAVCMC_Variable@@PAVCMC_Object@@PAVCMC_ObjectsContainer@@PAVCXVector@@@Z
?setOnlyEvents@CSpeakingAnimation@@QAEX_N@Z
?setOpacity@CMC_Animo_Runner@@AAEPAVCMC_Variable@@PAVCMC_Object@@PAVCMC_ObjectsContainer@@PAVCXVector@@@Z
?setOpacity@CMC_Canvas_Runner@@AAEPAVCMC_Variable@@PAVCMC_Object@@PAVCMC_ObjectsContainer@@PAVCXVector@@@Z
?setOpacity@CMC_Image_Runner@@AAEPAVCMC_Variable@@PAVCMC_Object@@PAVCMC_ObjectsContainer@@PAVCXVector@@@Z
?setOpacity@CMC_Text_Runner@@AAEPAVCMC_Variable@@PAVCMC_Object@@PAVCMC_ObjectsContainer@@PAVCXVector@@@Z
?setPan@CSndStream@@QAEXH@Z
?setPanning@CAnimo6@@UAEXH@Z
?setPanning@CMC_Animo_Runner@@AAEPAVCMC_Variable@@PAVCMC_Object@@PAVCMC_ObjectsContainer@@PAVCXVector@@@Z
?setPanning@CMC_Sequence_Runner@@AAEPAVCMC_Variable@@PAVCMC_Object@@PAVCMC_ObjectsContainer@@PAVCXVector@@@Z
?setPanning@CMC_Sound_Runner@@AAEPAVCMC_Variable@@PAVCMC_Object@@PAVCMC_ObjectsContainer@@PAVCXVector@@@Z
?setPanning@CPlayable@@UAEXH@Z
?setPanning@CSound4@@UAEXH@Z
?setParameter@CPlayable@@QAEXVCXString@@0@Z
?setParameter@CPlayable@@QAEXVCXString@@@Z
?setParams@CMC_Behaviour@@QAEXPAVCXArray@@@Z
?setParent@CMC_ObjectsContainer@@QAEXPAV1@@Z
?setParent@CPlayable@@UAEXPAV1@@Z
?setPosition@CAnimo@@UAEXHH@Z
?setPosition@CAnimo@@UAEXVCXPoint@@@Z
?setPosition@CEditBox6@@UAEXVCXPoint@@@Z
?setPosition@CGraphicsObject@@UAEXHH@Z
?setPosition@CGraphicsObject@@UAEXVCXPoint@@@Z
?setPosition@CMC_Animo_Runner@@AAEPAVCMC_Variable@@PAVCMC_Object@@PAVCMC_ObjectsContainer@@PAVCXVector@@@Z
?setPosition@CMC_Canvas_Runner@@AAEPAVCMC_Variable@@PAVCMC_Object@@PAVCMC_ObjectsContainer@@PAVCXVector@@@Z
?setPosition@CMC_EditBox_Runner@@AAEPAVCMC_Variable@@PAVCMC_Object@@PAVCMC_ObjectsContainer@@PAVCXVector@@@Z
?setPosition@CMC_Image_Runner@@AAEPAVCMC_Variable@@PAVCMC_Object@@PAVCMC_ObjectsContainer@@PAVCXVector@@@Z
?setPosition@CMC_Mouse@@QAEXHH@Z
?setPosition@CMC_Mouse_Runner@@AAEPAVCMC_Variable@@PAVCMC_Object@@PAVCMC_ObjectsContainer@@PAVCXVector@@@Z
?setPosition@CMC_Pattern_Runner@@AAEPAVCMC_Variable@@PAVCMC_Object@@PAVCMC_ObjectsContainer@@PAVCXVector@@@Z
?setPosition@CMC_Text_Runner@@AAEPAVCMC_Variable@@PAVCMC_Object@@PAVCMC_ObjectsContainer@@PAVCXVector@@@Z
?setPosition@CMC_VirtualGraphicsObject_Runner@@AAEPAVCMC_Variable@@PAVCMC_Object@@PAVCMC_ObjectsContainer@@PAVCXVector@@@Z
?setPosition@CPlayable@@UAEXHH@Z
?setPosition@CPlayable@@UAEXVCXPoint@@@Z
?setPosition@CSequencedPlayable@@UAEXHH@Z
?setPosition@CSpeakingAnimation@@UAEXHH@Z
?setPosition@CStreamedWAV@@QAEXJ@Z
?setPrefix@CSpeakingAnimation@@QAEXVCXString@@@Z
?setPrefix@CTreeSequenceElements@@QAEXVCXString@@0@Z
?setPriority@CButton@@UAEXH@Z
?setPriority@CEditBox6@@QAEXH@Z
?setPriority@CHotSpot@@UAEXH@Z
?setPriority@CMC_Animo_Runner@@AAEPAVCMC_Variable@@PAVCMC_Object@@PAVCMC_ObjectsContainer@@PAVCXVector@@@Z
?setPriority@CMC_Button_Runner@@AAEPAVCMC_Variable@@PAVCMC_Object@@PAVCMC_ObjectsContainer@@PAVCXVector@@@Z
?setPriority@CMC_Canvas_Runner@@AAEPAVCMC_Variable@@PAVCMC_Object@@PAVCMC_ObjectsContainer@@PAVCXVector@@@Z
?setPriority@CMC_EditBox_Runner@@AAEPAVCMC_Variable@@PAVCMC_Object@@PAVCMC_ObjectsContainer@@PAVCXVector@@@Z
?setPriority@CMC_Image_Runner@@AAEPAVCMC_Variable@@PAVCMC_Object@@PAVCMC_ObjectsContainer@@PAVCXVector@@@Z
?setPriority@CMC_Text_Runner@@AAEPAVCMC_Variable@@PAVCMC_Object@@PAVCMC_ObjectsContainer@@PAVCXVector@@@Z
?setPriority@CMC_VirtualGraphicsObject_Runner@@AAEPAVCMC_Variable@@PAVCMC_Object@@PAVCMC_ObjectsContainer@@PAVCXVector@@@Z
?setProperty@CMElement@@QAEXVCXString@@0@Z
?setRect@CMC_Button_Runner@@AAEPAVCMC_Variable@@PAVCMC_Object@@PAVCMC_ObjectsContainer@@PAVCXVector@@@Z
?setRect@CMC_Text_Runner@@AAEPAVCMC_Variable@@PAVCMC_Object@@PAVCMC_ObjectsContainer@@PAVCXVector@@@Z
?setResetPosition@CMC_Image_Runner@@AAEPAVCMC_Variable@@PAVCMC_Object@@PAVCMC_ObjectsContainer@@PAVCXVector@@@Z
?setRetCode@CUnit6@@QAEXH@Z
?setScene@CMC_Object@@UAEXPAVCMC_ObjectsContainer@@@Z
?setSecond@CXPair@@QAEXPAX@Z
?setSequence@CTreeSequenceElements@@QAEXVCXString@@00@Z
?setSize@CGraphicsObject@@UAEXVCXSize@@@Z
?setSize@CMC_Font_Runner@@AAEPAVCMC_Variable@@PAVCMC_Object@@PAVCMC_ObjectsContainer@@PAVCXVector@@@Z
?setSize@CSimpleFont6@@QAEXH@Z
?setSource@CMC_VirtualGraphicsObject_Runner@@AAEPAVCMC_Variable@@PAVCMC_Object@@PAVCMC_ObjectsContainer@@PAVCXVector@@@Z
?setStarting@CSpeakingAnimation@@QAEX_N@Z
?setStarting@CTreeSequenceElements@@QAEXVCXString@@_N@Z
?setStd@CMC_Button_Runner@@AAEPAVCMC_Variable@@PAVCMC_Object@@PAVCMC_ObjectsContainer@@PAVCXVector@@@Z
?setStyle@CMC_Font_Runner@@AAEPAVCMC_Variable@@PAVCMC_Object@@PAVCMC_ObjectsContainer@@PAVCXVector@@@Z
?setStyle@CSimpleFont6@@QAEXVCXString@@@Z
?setText@CEditBox6@@QAEXVCXString@@@Z
?setText@CMC_EditBox_Runner@@AAEPAVCMC_Variable@@PAVCMC_Object@@PAVCMC_ObjectsContainer@@PAVCXVector@@@Z
?setText@CMC_Text_Runner@@AAEPAVCMC_Variable@@PAVCMC_Object@@PAVCMC_ObjectsContainer@@PAVCXVector@@@Z
?setText@CMultilineText6@@QAEXVCXString@@@Z
?setText@CText6@@QAEXVCXString@@@Z
?setTextDouble@CMC_Text_Runner@@AAEPAVCMC_Variable@@PAVCMC_Object@@PAVCMC_ObjectsContainer@@PAVCXVector@@@Z
?setTimer@CUnit6@@QAEXHH_N@Z
?setToDelete@CXObject@@UAEXXZ
?setToSay@CTreeSequenceElements@@QAEXVCXString@@0@Z
?setType@CTreeSequenceElements@@QAEXVCXString@@0@Z
?setUnit@CButton@@QAEXPAVCUnit6@@@Z
?setUnit@CHotSpot@@QAEXPAVCUnit6@@@Z
?setUnit@CMC_Scene@@QAEXPAVCUnit6@@@Z
?setUnit@CSwitchButton@@QAEXPAVCUnit6@@@Z
?setUnitName@CUnit6@@QAEXVCXString@@@Z
?setValue@CMC_Bool@@QAEX_N@Z
?setValue@CMC_Double@@QAEXN@Z
?setValue@CMC_Integer@@QAEXH@Z
?setValue@CMC_String@@QAEXVCXString@@@Z
?setValue@CMProperty@@QAEXVCXString@@@Z
?setViewport@CMC_Scroll@@QAEXVCXRect@@@Z
?setViewport@CMC_Scroll_Runner@@AAEPAVCMC_Variable@@PAVCMC_Object@@PAVCMC_ObjectsContainer@@PAVCXVector@@@Z
?setVisibility@CAnimo@@UAEX_N@Z
?setVisibility@CEditBox6@@QAEX_N@Z
?setVisibility@CImage@@UAEX_N@Z
?setVisibility@CPlayable@@UAEX_N@Z
?setVisibility@CSequencedPlayable@@UAEX_N@Z
?setVisibility@CSpeakingAnimation@@UAEX_N@Z
?setVolume@CAnimo6@@UAEXH@Z
?setVolume@CMC_Animo_Runner@@AAEPAVCMC_Variable@@PAVCMC_Object@@PAVCMC_ObjectsContainer@@PAVCXVector@@@Z
?setVolume@CMC_Sequence_Runner@@AAEPAVCMC_Variable@@PAVCMC_Object@@PAVCMC_ObjectsContainer@@PAVCXVector@@@Z
?setVolume@CMC_Sound_Runner@@AAEPAVCMC_Variable@@PAVCMC_Object@@PAVCMC_ObjectsContainer@@PAVCXVector@@@Z
?setVolume@CPlayable@@UAEXH@Z
?setVolume@CSndStream@@QAEXH@Z
?setVolume@CSound4@@UAEXH@Z
?setWAVFN@CTreeSequenceElements@@QAEXVCXString@@0@Z
?setWaitMode@CPlayable@@QAEX_N@Z
?setWaitMode@CTreeSequenceElements@@QAEXVCXString@@_N@Z
?setWindowIfc@CLanguageOSVer@@QAEXPAVCWindow@@@Z
?sgn@CMC_Variable_Runner@@AAEPAVCMC_Variable@@PAVCMC_Object@@PAVCMC_ObjectsContainer@@PAVCXVector@@@Z
?shiftLeft@CMC_Array@@QAEXXZ
?shiftLeft@CMC_Array_Runner@@AAEPAVCMC_Variable@@PAVCMC_Object@@PAVCMC_ObjectsContainer@@PAVCXVector@@@Z
?shiftRight@CMC_Array@@QAEXXZ
?shiftRight@CMC_Array_Runner@@AAEPAVCMC_Variable@@PAVCMC_Object@@PAVCMC_ObjectsContainer@@PAVCXVector@@@Z
?shouldMusicBeStarted@CMC_Scene@@UAE_NXZ
?show@CAnimo6@@UAEXXZ
?show@CAnimo@@UAEXXZ
?show@CImage@@UAEXXZ
?show@CMC_Animo_Runner@@AAEPAVCMC_Variable@@PAVCMC_Object@@PAVCMC_ObjectsContainer@@PAVCXVector@@@Z
?show@CMC_Canvas_Runner@@AAEPAVCMC_Variable@@PAVCMC_Object@@PAVCMC_ObjectsContainer@@PAVCXVector@@@Z
?show@CMC_Dialog_Runner@@AAEPAVCMC_Variable@@PAVCMC_Object@@PAVCMC_ObjectsContainer@@PAVCXVector@@@Z
?show@CMC_Image_Runner@@AAEPAVCMC_Variable@@PAVCMC_Object@@PAVCMC_ObjectsContainer@@PAVCXVector@@@Z
?show@CMC_Mouse@@QAEXXZ
?show@CMC_Mouse_Runner@@AAEPAVCMC_Variable@@PAVCMC_Object@@PAVCMC_ObjectsContainer@@PAVCXVector@@@Z
?show@CMC_Sequence_Runner@@AAEPAVCMC_Variable@@PAVCMC_Object@@PAVCMC_ObjectsContainer@@PAVCXVector@@@Z
?show@CMC_Text_Runner@@AAEPAVCMC_Variable@@PAVCMC_Object@@PAVCMC_ObjectsContainer@@PAVCXVector@@@Z
?show@CMC_VirtualGraphicsObject_Runner@@AAEPAVCMC_Variable@@PAVCMC_Object@@PAVCMC_ObjectsContainer@@PAVCXVector@@@Z
?show@CPlayable@@UAEXXZ
?show@CTreeSequenceElements@@QAEXVCXString@@@Z
?show@CXDialog@@UAEXXZ
?sind@CMC_Variable_Runner@@AAEPAVCMC_Variable@@PAVCMC_Object@@PAVCMC_ObjectsContainer@@PAVCXVector@@@Z
?singleton@CDXMouse@@0PAV1@A
?singleton@CMC_Joystick@@0PAV1@A
?sort@CMC_Array@@UAEX_N@Z
?sort@CMC_Array_Runner@@AAEPAVCMC_Variable@@PAVCMC_Object@@PAVCMC_ObjectsContainer@@PAVCXVector@@@Z
?sortMany@CMC_Array_Runner@@AAEPAVCMC_Variable@@PAVCMC_Object@@PAVCMC_ObjectsContainer@@PAVCXVector@@@Z
?splitMultiText@CMultilineText6@@AAEXXZ
?splitText@CMultilineText6@@AAEXXZ
?sqrt@CMC_Variable_Runner@@AAEPAVCMC_Variable@@PAVCMC_Object@@PAVCMC_ObjectsContainer@@PAVCXVector@@@Z
?start@CDataBuffer@@QAEXXZ
?start@CMC_NetServer@@QAEXXZ
?start@CNetworkServer@@QAEXXZ
?startMusic@CMC_Scene@@UAEXPAD_N@Z
?startMusic@CMC_Scene_Runner@@AAEPAVCMC_Variable@@PAVCMC_Object@@PAVCMC_ObjectsContainer@@PAVCXVector@@@Z
?startMusic@CUnit6@@UAEXPAD_N@Z
?startsWith@CXString@@QAE_NV1@@Z
?stop@CAnimo@@UAEX_N@Z
?stop@CImage@@UAEX_N@Z
?stop@CMC_Animo_Runner@@AAEPAVCMC_Variable@@PAVCMC_Object@@PAVCMC_ObjectsContainer@@PAVCXVector@@@Z
?stop@CMC_NetServer@@QAEXXZ
?stop@CMC_Sequence_Runner@@AAEPAVCMC_Variable@@PAVCMC_Object@@PAVCMC_ObjectsContainer@@PAVCXVector@@@Z
?stop@CMC_Sound_Runner@@AAEPAVCMC_Variable@@PAVCMC_Object@@PAVCMC_ObjectsContainer@@PAVCXVector@@@Z
?stop@CNetworkServer@@QAEXXZ
?stop@CSequencedPlayable@@UAEX_N@Z
?stop@CSound4@@UAEX_N@Z
?stop@CSpeakingAnimation@@UAEX_N@Z
?stopMusic@CMC_Scene@@UAEXXZ
?stopMusic@CMC_Scene_Runner@@AAEPAVCMC_Variable@@PAVCMC_Object@@PAVCMC_ObjectsContainer@@PAVCXVector@@@Z
?stopMusic@CUnit6@@UAEXXZ
?store@CMC_Bool@@UAEXPAVCXArchive@@@Z
?store@CMC_Double@@UAEXPAVCXArchive@@@Z
?store@CMC_Expression@@UAEXPAVCXArchive@@@Z
?store@CMC_Integer@@UAEXPAVCXArchive@@@Z
?store@CMC_String@@UAEXPAVCXArchive@@@Z
?store@CMC_Structure@@UAEXPAVCXArchive@@@Z
?storeBinary@CMC_Application@@UAEXXZ
?storeBinary@CMC_Application_Runner@@AAEPAVCMC_Variable@@PAVCMC_Object@@PAVCMC_ObjectsContainer@@PAVCXVector@@@Z
?strPtr@CMC_VariableFactory@@0HA
?stringAt@CXArray@@UAEPAVCXString@@H@Z
?sub@CMC_Array@@UAEXPAVCMC_Variable@@@Z
?sub@CMC_Array_Runner@@AAEPAVCMC_Variable@@PAVCMC_Object@@PAVCMC_ObjectsContainer@@PAVCXVector@@@Z
?sub@CMC_Variable_Runner@@AAEPAVCMC_Variable@@PAVCMC_Object@@PAVCMC_ObjectsContainer@@PAVCXVector@@@Z
?sub@CXRect@@QAEPAVCXArray@@V1@@Z
?subParent@CPlayable@@QAEXXZ
?suba@CMC_Array@@UAEXPAVCMC_String@@HH@Z
?suba@CMC_Array_Runner@@AAEPAVCMC_Variable@@PAVCMC_Object@@PAVCMC_ObjectsContainer@@PAVCXVector@@@Z
?subat@CMC_Array@@UAEXHPAVCMC_Variable@@@Z
?subat@CMC_Array_Runner@@AAEPAVCMC_Variable@@PAVCMC_Object@@PAVCMC_ObjectsContainer@@PAVCXVector@@@Z
?substAnimation@CPlayable@@UAEXPAVCAnimo@@@Z
?substAnimation@CSpeakingAnimation@@UAEXPAVCAnimo@@@Z
?sum@CMC_Array@@UAEXPAVCMC_Variable@@@Z
?sum@CMC_Array_Runner@@AAEPAVCMC_Variable@@PAVCMC_Object@@PAVCMC_ObjectsContainer@@PAVCXVector@@@Z
?suma@CMC_Array@@UAEXPAVCMC_String@@HH@Z
?suma@CMC_Array_Runner@@AAEPAVCMC_Variable@@PAVCMC_Object@@PAVCMC_ObjectsContainer@@PAVCXVector@@@Z
?swap@CMC_Array@@UAEXHH@Z
?swap@CMC_Array_Runner@@AAEPAVCMC_Variable@@PAVCMC_Object@@PAVCMC_ObjectsContainer@@PAVCXVector@@@Z
?swap@CMC_Bool@@UAEXPAVCMC_Variable@@0@Z
?swap@CMC_Double@@UAEXPAVCMC_Variable@@0@Z
?swap@CMC_Expression@@UAEXPAVCMC_Variable@@0@Z
?swap@CMC_Integer@@UAEXPAVCMC_Variable@@0@Z
?swap@CMC_String@@UAEXPAVCMC_Variable@@0@Z
?swap@CMC_Structure@@UAEXPAVCMC_Variable@@0@Z
?swap_dword@CXObject@@QAEHH@Z
?swap_word@CXObject@@QAEFF@Z
?testHit@CGraphicsObject@@UAE_NVCXPoint@@@Z
?tick@CCollisionInspector@@QAEXXZ
?tick@CDXMouse@@QAEXXZ
?tick@CKeyboard@@QAEXXZ
?tick@CMC_Joystick@@UAEXXZ
?tick@CRandomPlayableEntry@@UAEXXZ
?toBool@CXString@@QAE_NXZ
?toBool@CXString@@SA_NV1@@Z
?toDebug@CMC_Runner@@UAEXVCXString@@PAVCXVector@@@Z
?toDouble@CXString@@QAENXZ
?toDouble@CXString@@SANV1@@Z
?toInt@CInteger@@QAEHXZ
?toLocalAxis@CGraphicsObject@@QAE?AVCXPoint@@V2@@Z
?toLocalAxis@CGraphicsObject@@QAE?AVCXRect@@V2@@Z
?toLog@CWindow@@SAXVCXString@@_N@Z
?toNumber@CXString@@QAEHXZ
?toNumber@CXString@@SAHV1@@Z
?toPoint@CXString@@QAE?AVCXPoint@@XZ
?toRect@CXString@@QAE?AVCXRect@@XZ
?toRelease@CFileResolver@@UAEX_N@Z
?toString@CInteger@@SA?AVCXString@@H@Z
?toString@CMC_Array@@UAE?AVCXString@@XZ
?toString@CMC_Bool@@UAE?AVCXString@@XZ
?toString@CMC_Double@@UAE?AVCXString@@XZ
?toString@CMC_Groupped@@UAE?AVCXString@@XZ
?toString@CMC_Integer@@UAE?AVCXString@@XZ
?toString@CMC_MultiArray@@UAE?AVCXString@@XZ
?toString@CMC_Object@@UAE?AVCXString@@XZ
?toString@CMC_String@@UAE?AVCXString@@XZ
?toString@CMC_Structure@@UAE?AVCXString@@XZ
?toString@CXObject@@UAE?AVCXString@@XZ
?toString@CXString@@SA?AV1@H@Z
?toString@CXString@@SA?AV1@N@Z
?toString@CXString@@SA?AV1@_N@Z
?toTime@CMC_Scene_Runner@@AAEPAVCMC_Variable@@PAVCMC_Object@@PAVCMC_ObjectsContainer@@PAVCXVector@@@Z
?toVector@CXString@@QAEPAVCXArray@@V1@@Z
?toVector@CXString@@QAEPAVCXArray@@XZ
?tranlateToChar@CWindow@@SAEH@Z
?typeToString@CMC_Object@@SA?AVCXString@@H@Z
?unload@CMC_Application@@UAEXPAVCMC_Scene@@@Z
?unload@CMC_Episode@@UAEXPAVCMC_Scene@@@Z
?unload@CMC_ObjectsContainer@@UAEXXZ
?unload@CMC_Scene@@UAEXPAV1@@Z
?unpack@CAnimo6@@UAEXXZ
?unpack@CGraphicsObject@@UAEXXZ
?updateCursor@CEditBox6@@AAEXXZ
?updateWithCurrentFrame@CAnimo@@QAEXXZ
?upper@CMC_String@@UAEXXZ
?upper@CMC_Variable_Runner@@AAEPAVCMC_Variable@@PAVCMC_Object@@PAVCMC_ObjectsContainer@@PAVCXVector@@@Z
?valid@CMC_ComplexCondition@@UAE_N_N@Z
?valid@CMC_Condition@@SA_NPAVCMC_ObjectsContainer@@VCXString@@11@Z
?valid@CMC_Condition@@SA_NPAVCMC_ObjectsContainer@@VCXString@@1H@Z
?valid@CMC_Condition@@SA_NPAVCMC_ObjectsContainer@@VCXString@@@Z
?valid@CMC_Condition@@UAE_N_N@Z
?validate@CRefreshScreen@@QAEXXZ
?validateSize@CMC_MultiArray@@AAEXPAH@Z
?variablesBool@CMC_VariableFactory@@0PAPAVCMC_Bool@@A
?variablesBoolTaken@CMC_VariableFactory@@0PA_NA
?variablesDbl@CMC_VariableFactory@@0PAPAVCMC_Double@@A
?variablesDblTaken@CMC_VariableFactory@@0PA_NA
?variablesInt@CMC_VariableFactory@@0PAPAVCMC_Integer@@A
?variablesIntTaken@CMC_VariableFactory@@0PA_NA
?variablesStr@CMC_VariableFactory@@0PAPAVCMC_String@@A
?variablesStrTaken@CMC_VariableFactory@@0PA_NA
?verifyBehaviour@CMC_Animo@@UAE_NVCXString@@@Z
?verifyBehaviour@CMC_Canvas@@UAE_NVCXString@@@Z
?verifyBehaviour@CMC_Image@@UAE_NVCXString@@@Z
?verifyBehaviour@CMC_Object@@UAE_NVCXString@@@Z
?verifyBehaviour@CMC_Pattern@@UAE_NVCXString@@@Z
?waitForVB@CSurface@@QAEXXZ
?wasInitiallyUpdated@CUnit6@@UAE_NXZ
?writeShortString@CXArchive@@QAEXVCXString@@@Z
?xor@CMC_Variable_Runner@@AAEPAVCMC_Variable@@PAVCMC_Object@@PAVCMC_ObjectsContainer@@PAVCXVector@@@Z
?zero@CDataBuffer@@QAEXXZ
sf_close
sf_open
sf_readf_short